	.file	"main.cpp"
	.text
	.section	.text$_ZNSt15__new_allocatorISt6vectorI4TileSaIS1_EEED2Ev,"x"
	.linkonce discard
	.align 2
	.globl	_ZNSt15__new_allocatorISt6vectorI4TileSaIS1_EEED2Ev
	.def	_ZNSt15__new_allocatorISt6vectorI4TileSaIS1_EEED2Ev;	.scl	2;	.type	32;	.endef
	.seh_proc	_ZNSt15__new_allocatorISt6vectorI4TileSaIS1_EEED2Ev
_ZNSt15__new_allocatorISt6vectorI4TileSaIS1_EEED2Ev:
.LFB3558:
	.seh_endprologue
	ret
	.seh_endproc
	.section	.text$_ZNSt15__new_allocatorI4TileED2Ev,"x"
	.linkonce discard
	.align 2
	.globl	_ZNSt15__new_allocatorI4TileED2Ev
	.def	_ZNSt15__new_allocatorI4TileED2Ev;	.scl	2;	.type	32;	.endef
	.seh_proc	_ZNSt15__new_allocatorI4TileED2Ev
_ZNSt15__new_allocatorI4TileED2Ev:
.LFB3583:
	.seh_endprologue
	ret
	.seh_endproc
	.section	.text$_ZNSt15__new_allocatorISt13_Rb_tree_nodeISt4pairIK4TilecEEED2Ev,"x"
	.linkonce discard
	.align 2
	.globl	_ZNSt15__new_allocatorISt13_Rb_tree_nodeISt4pairIK4TilecEEED2Ev
	.def	_ZNSt15__new_allocatorISt13_Rb_tree_nodeISt4pairIK4TilecEEED2Ev;	.scl	2;	.type	32;	.endef
	.seh_proc	_ZNSt15__new_allocatorISt13_Rb_tree_nodeISt4pairIK4TilecEEED2Ev
_ZNSt15__new_allocatorISt13_Rb_tree_nodeISt4pairIK4TilecEEED2Ev:
.LFB3699:
	.seh_endprologue
	ret
	.seh_endproc
	.section	.text$_ZNSt15__new_allocatorISt13_Rb_tree_nodeISt4pairIKc4TileEEED2Ev,"x"
	.linkonce discard
	.align 2
	.globl	_ZNSt15__new_allocatorISt13_Rb_tree_nodeISt4pairIKc4TileEEED2Ev
	.def	_ZNSt15__new_allocatorISt13_Rb_tree_nodeISt4pairIKc4TileEEED2Ev;	.scl	2;	.type	32;	.endef
	.seh_proc	_ZNSt15__new_allocatorISt13_Rb_tree_nodeISt4pairIKc4TileEEED2Ev
_ZNSt15__new_allocatorISt13_Rb_tree_nodeISt4pairIKc4TileEEED2Ev:
.LFB3720:
	.seh_endprologue
	ret
	.seh_endproc
	.section	.text$_ZSt8_DestroyIPcEvT_S1_,"x"
	.linkonce discard
	.globl	_ZSt8_DestroyIPcEvT_S1_
	.def	_ZSt8_DestroyIPcEvT_S1_;	.scl	2;	.type	32;	.endef
	.seh_proc	_ZSt8_DestroyIPcEvT_S1_
_ZSt8_DestroyIPcEvT_S1_:
.LFB3798:
	.seh_endprologue
	ret
	.seh_endproc
	.section	.text$_ZSt8_DestroyIP4TileEvT_S2_,"x"
	.linkonce discard
	.globl	_ZSt8_DestroyIP4TileEvT_S2_
	.def	_ZSt8_DestroyIP4TileEvT_S2_;	.scl	2;	.type	32;	.endef
	.seh_proc	_ZSt8_DestroyIP4TileEvT_S2_
_ZSt8_DestroyIP4TileEvT_S2_:
.LFB3825:
	.seh_endprologue
	ret
	.seh_endproc
	.section	.text$_ZNKSt6vectorI4TileSaIS0_EE12_M_check_lenEyPKc,"x"
	.linkonce discard
	.align 2
	.globl	_ZNKSt6vectorI4TileSaIS0_EE12_M_check_lenEyPKc
	.def	_ZNKSt6vectorI4TileSaIS0_EE12_M_check_lenEyPKc;	.scl	2;	.type	32;	.endef
	.seh_proc	_ZNKSt6vectorI4TileSaIS0_EE12_M_check_lenEyPKc
_ZNKSt6vectorI4TileSaIS0_EE12_M_check_lenEyPKc:
.LFB3831:
	subq	$56, %rsp
	.seh_stackalloc	56
	.seh_endprologue
	movq	%rcx, %r9
	movq	%rdx, 72(%rsp)
	movq	8(%rcx), %rdx
	movq	%rdx, %rax
	subq	(%rcx), %rax
	sarq	$2, %rax
	movabsq	$2305843009213693951, %r10
	subq	%rax, %r10
	movq	72(%rsp), %rcx
	cmpq	%rcx, %r10
	jb	.L14
	movq	%rax, 40(%rsp)
	cmpq	%rcx, %rax
	jb	.L11
	leaq	40(%rsp), %rcx
.L9:
	addq	(%rcx), %rax
	subq	(%r9), %rdx
	sarq	$2, %rdx
	cmpq	%rdx, %rax
	jb	.L12
	movabsq	$2305843009213693951, %rdx
	cmpq	%rax, %rdx
	jb	.L15
.L7:
	addq	$56, %rsp
	ret
.L14:
	movq	%r8, %rcx
	call	_ZSt20__throw_length_errorPKc
.L11:
	leaq	72(%rsp), %rcx
	jmp	.L9
.L12:
	movabsq	$2305843009213693951, %rax
	jmp	.L7
.L15:
	movabsq	$2305843009213693951, %rax
	jmp	.L7
	.seh_endproc
	.section	.text$_ZNKSt6vectorIS_I4TileSaIS0_EESaIS2_EE12_M_check_lenEyPKc,"x"
	.linkonce discard
	.align 2
	.globl	_ZNKSt6vectorIS_I4TileSaIS0_EESaIS2_EE12_M_check_lenEyPKc
	.def	_ZNKSt6vectorIS_I4TileSaIS0_EESaIS2_EE12_M_check_lenEyPKc;	.scl	2;	.type	32;	.endef
	.seh_proc	_ZNKSt6vectorIS_I4TileSaIS0_EESaIS2_EE12_M_check_lenEyPKc
_ZNKSt6vectorIS_I4TileSaIS0_EESaIS2_EE12_M_check_lenEyPKc:
.LFB3843:
	subq	$56, %rsp
	.seh_stackalloc	56
	.seh_endprologue
	movq	%rcx, %r9
	movq	%rdx, 72(%rsp)
	movq	8(%rcx), %rdx
	movq	%rdx, %rax
	subq	(%rcx), %rax
	sarq	$3, %rax
	movabsq	$-6148914691236517205, %rcx
	imulq	%rcx, %rax
	movabsq	$384307168202282325, %r10
	subq	%rax, %r10
	movq	72(%rsp), %rcx
	cmpq	%rcx, %r10
	jb	.L23
	movq	%rax, 40(%rsp)
	cmpq	%rcx, %rax
	jb	.L20
	leaq	40(%rsp), %rcx
.L18:
	addq	(%rcx), %rax
	subq	(%r9), %rdx
	sarq	$3, %rdx
	movabsq	$-6148914691236517205, %rcx
	imulq	%rcx, %rdx
	cmpq	%rdx, %rax
	jb	.L21
	movabsq	$384307168202282325, %rdx
	cmpq	%rax, %rdx
	jb	.L24
.L16:
	addq	$56, %rsp
	ret
.L23:
	movq	%r8, %rcx
	call	_ZSt20__throw_length_errorPKc
.L20:
	leaq	72(%rsp), %rcx
	jmp	.L18
.L21:
	movabsq	$384307168202282325, %rax
	jmp	.L16
.L24:
	movabsq	$384307168202282325, %rax
	jmp	.L16
	.seh_endproc
	.section	.text$_ZNSt8_Rb_treeI4TileSt4pairIKS0_cESt10_Select1stIS3_ESt4lessIS0_ESaIS3_EE24_M_get_insert_unique_posERS2_,"x"
	.linkonce discard
	.align 2
	.globl	_ZNSt8_Rb_treeI4TileSt4pairIKS0_cESt10_Select1stIS3_ESt4lessIS0_ESaIS3_EE24_M_get_insert_unique_posERS2_
	.def	_ZNSt8_Rb_treeI4TileSt4pairIKS0_cESt10_Select1stIS3_ESt4lessIS0_ESaIS3_EE24_M_get_insert_unique_posERS2_;	.scl	2;	.type	32;	.endef
	.seh_proc	_ZNSt8_Rb_treeI4TileSt4pairIKS0_cESt10_Select1stIS3_ESt4lessIS0_ESaIS3_EE24_M_get_insert_unique_posERS2_
_ZNSt8_Rb_treeI4TileSt4pairIKS0_cESt10_Select1stIS3_ESt4lessIS0_ESaIS3_EE24_M_get_insert_unique_posERS2_:
.LFB3954:
	pushq	%rbp
	.seh_pushreg	%rbp
	pushq	%rdi
	.seh_pushreg	%rdi
	pushq	%rsi
	.seh_pushreg	%rsi
	pushq	%rbx
	.seh_pushreg	%rbx
	subq	$40, %rsp
	.seh_stackalloc	40
	.seh_endprologue
	movq	%rcx, %rbp
	movq	%r8, %rsi
	movq	16(%rdx), %rbx
	leaq	8(%rdx), %rdi
	movl	$1, %ecx
	jmp	.L26
.L27:
	movq	24(%rbx), %rax
.L28:
	movq	%rbx, %rdi
	movq	%rax, %rbx
.L26:
	testq	%rbx, %rbx
	je	.L34
	movl	32(%rbx), %eax
	cmpl	%eax, (%rsi)
	setl	%cl
	jge	.L27
	movq	16(%rbx), %rax
	jmp	.L28
.L34:
	movq	%rdi, %rax
	testb	%cl, %cl
	je	.L30
	cmpq	%rdi, 24(%rdx)
	je	.L35
	movq	%rdi, %rcx
	call	_ZSt18_Rb_tree_decrementPSt18_Rb_tree_node_base
.L30:
	movl	(%rsi), %edx
	cmpl	%edx, 32(%rax)
	jge	.L33
	movq	%rbx, 0(%rbp)
	movq	%rdi, 8(%rbp)
.L25:
	movq	%rbp, %rax
	addq	$40, %rsp
	popq	%rbx
	popq	%rsi
	popq	%rdi
	popq	%rbp
	ret
.L35:
	movq	%rbx, 0(%rbp)
	movq	%rdi, 8(%rbp)
	jmp	.L25
.L33:
	movq	%rax, 0(%rbp)
	movq	$0, 8(%rbp)
	jmp	.L25
	.seh_endproc
	.section	.text$_ZNSt8_Rb_treeI4TileSt4pairIKS0_cESt10_Select1stIS3_ESt4lessIS0_ESaIS3_EE29_M_get_insert_hint_unique_posESt23_Rb_tree_const_iteratorIS3_ERS2_,"x"
	.linkonce discard
	.align 2
	.globl	_ZNSt8_Rb_treeI4TileSt4pairIKS0_cESt10_Select1stIS3_ESt4lessIS0_ESaIS3_EE29_M_get_insert_hint_unique_posESt23_Rb_tree_const_iteratorIS3_ERS2_
	.def	_ZNSt8_Rb_treeI4TileSt4pairIKS0_cESt10_Select1stIS3_ESt4lessIS0_ESaIS3_EE29_M_get_insert_hint_unique_posESt23_Rb_tree_const_iteratorIS3_ERS2_;	.scl	2;	.type	32;	.endef
	.seh_proc	_ZNSt8_Rb_treeI4TileSt4pairIKS0_cESt10_Select1stIS3_ESt4lessIS0_ESaIS3_EE29_M_get_insert_hint_unique_posESt23_Rb_tree_const_iteratorIS3_ERS2_
_ZNSt8_Rb_treeI4TileSt4pairIKS0_cESt10_Select1stIS3_ESt4lessIS0_ESaIS3_EE29_M_get_insert_hint_unique_posESt23_Rb_tree_const_iteratorIS3_ERS2_:
.LFB3741:
	pushq	%r12
	.seh_pushreg	%r12
	pushq	%rbp
	.seh_pushreg	%rbp
	pushq	%rdi
	.seh_pushreg	%rdi
	pushq	%rsi
	.seh_pushreg	%rsi
	pushq	%rbx
	.seh_pushreg	%rbx
	subq	$32, %rsp
	.seh_stackalloc	32
	.seh_endprologue
	movq	%rcx, %rbp
	movq	%rdx, %r12
	movq	%r8, %rbx
	movq	%r9, %rsi
	leaq	8(%rdx), %rax
	cmpq	%rax, %r8
	je	.L50
	movl	(%r9), %edi
	movl	32(%r8), %eax
	cmpl	%edi, %eax
	jle	.L40
	movq	24(%rdx), %rax
	cmpq	%r8, %rax
	je	.L51
	movq	%r8, %rcx
	call	_ZSt18_Rb_tree_decrementPSt18_Rb_tree_node_base
	cmpl	%edi, 32(%rax)
	jge	.L43
	cmpq	$0, 24(%rax)
	je	.L52
	movq	%rbx, 0(%rbp)
	movq	%rbx, 8(%rbp)
	jmp	.L36
.L50:
	cmpq	$0, 40(%rdx)
	je	.L38
	movq	32(%rdx), %rax
	movl	32(%rax), %edi
	cmpl	%edi, (%r9)
	jle	.L38
	movq	$0, (%rcx)
	movq	%rax, 8(%rcx)
	jmp	.L36
.L38:
	movq	%rsi, %r8
	movq	%r12, %rdx
	movq	%rbp, %rcx
	call	_ZNSt8_Rb_treeI4TileSt4pairIKS0_cESt10_Select1stIS3_ESt4lessIS0_ESaIS3_EE24_M_get_insert_unique_posERS2_
.L36:
	movq	%rbp, %rax
	addq	$32, %rsp
	popq	%rbx
	popq	%rsi
	popq	%rdi
	popq	%rbp
	popq	%r12
	ret
.L51:
	movq	%rax, (%rcx)
	movq	%rax, 8(%rcx)
	jmp	.L36
.L52:
	movq	$0, 0(%rbp)
	movq	%rax, 8(%rbp)
	jmp	.L36
.L43:
	movq	%rsi, %r8
	movq	%r12, %rdx
	movq	%rbp, %rcx
	call	_ZNSt8_Rb_treeI4TileSt4pairIKS0_cESt10_Select1stIS3_ESt4lessIS0_ESaIS3_EE24_M_get_insert_unique_posERS2_
	jmp	.L36
.L40:
	jge	.L45
	movq	32(%rdx), %rax
	cmpq	%r8, %rax
	je	.L53
	movq	%r8, %rcx
	call	_ZSt18_Rb_tree_incrementPSt18_Rb_tree_node_base
	cmpl	32(%rax), %edi
	jge	.L48
	cmpq	$0, 24(%rbx)
	je	.L54
	movq	%rax, 0(%rbp)
	movq	%rax, 8(%rbp)
	jmp	.L36
.L53:
	movq	$0, (%rcx)
	movq	%rax, 8(%rcx)
	jmp	.L36
.L54:
	movq	$0, 0(%rbp)
	movq	%rbx, 8(%rbp)
	jmp	.L36
.L48:
	movq	%rsi, %r8
	movq	%r12, %rdx
	movq	%rbp, %rcx
	call	_ZNSt8_Rb_treeI4TileSt4pairIKS0_cESt10_Select1stIS3_ESt4lessIS0_ESaIS3_EE24_M_get_insert_unique_posERS2_
	jmp	.L36
.L45:
	movq	%r8, 0(%rbp)
	movq	$0, 8(%rcx)
	jmp	.L36
	.seh_endproc
	.section	.text$_ZNSt8_Rb_treeIcSt4pairIKc4TileESt10_Select1stIS3_ESt4lessIcESaIS3_EE14_M_lower_boundEPSt13_Rb_tree_nodeIS3_EPSt18_Rb_tree_node_baseRS1_,"x"
	.linkonce discard
	.align 2
	.globl	_ZNSt8_Rb_treeIcSt4pairIKc4TileESt10_Select1stIS3_ESt4lessIcESaIS3_EE14_M_lower_boundEPSt13_Rb_tree_nodeIS3_EPSt18_Rb_tree_node_baseRS1_
	.def	_ZNSt8_Rb_treeIcSt4pairIKc4TileESt10_Select1stIS3_ESt4lessIcESaIS3_EE14_M_lower_boundEPSt13_Rb_tree_nodeIS3_EPSt18_Rb_tree_node_baseRS1_;	.scl	2;	.type	32;	.endef
	.seh_proc	_ZNSt8_Rb_treeIcSt4pairIKc4TileESt10_Select1stIS3_ESt4lessIcESaIS3_EE14_M_lower_boundEPSt13_Rb_tree_nodeIS3_EPSt18_Rb_tree_node_baseRS1_
_ZNSt8_Rb_treeIcSt4pairIKc4TileESt10_Select1stIS3_ESt4lessIcESaIS3_EE14_M_lower_boundEPSt13_Rb_tree_nodeIS3_EPSt18_Rb_tree_node_baseRS1_:
.LFB3967:
	.seh_endprologue
	movq	%r8, %rax
	jmp	.L56
.L57:
	movq	24(%rdx), %rdx
.L56:
	testq	%rdx, %rdx
	je	.L60
	movzbl	(%r9), %ecx
	cmpb	%cl, 32(%rdx)
	jl	.L57
	movq	%rdx, %rax
	movq	16(%rdx), %rdx
	jmp	.L56
.L60:
	ret
	.seh_endproc
	.section	.text$_ZNSt3mapIc4TileSt4lessIcESaISt4pairIKcS0_EEE11lower_boundERS4_,"x"
	.linkonce discard
	.align 2
	.globl	_ZNSt3mapIc4TileSt4lessIcESaISt4pairIKcS0_EEE11lower_boundERS4_
	.def	_ZNSt3mapIc4TileSt4lessIcESaISt4pairIKcS0_EEE11lower_boundERS4_;	.scl	2;	.type	32;	.endef
	.seh_proc	_ZNSt3mapIc4TileSt4lessIcESaISt4pairIKcS0_EEE11lower_boundERS4_
_ZNSt3mapIc4TileSt4lessIcESaISt4pairIKcS0_EEE11lower_boundERS4_:
.LFB3487:
	subq	$40, %rsp
	.seh_stackalloc	40
	.seh_endprologue
	movq	%rdx, %r9
	movq	16(%rcx), %rdx
	leaq	8(%rcx), %r8
	call	_ZNSt8_Rb_treeIcSt4pairIKc4TileESt10_Select1stIS3_ESt4lessIcESaIS3_EE14_M_lower_boundEPSt13_Rb_tree_nodeIS3_EPSt18_Rb_tree_node_baseRS1_
	addq	$40, %rsp
	ret
	.seh_endproc
	.section	.text$_ZNSt8_Rb_treeIcSt4pairIKc4TileESt10_Select1stIS3_ESt4lessIcESaIS3_EE24_M_get_insert_unique_posERS1_,"x"
	.linkonce discard
	.align 2
	.globl	_ZNSt8_Rb_treeIcSt4pairIKc4TileESt10_Select1stIS3_ESt4lessIcESaIS3_EE24_M_get_insert_unique_posERS1_
	.def	_ZNSt8_Rb_treeIcSt4pairIKc4TileESt10_Select1stIS3_ESt4lessIcESaIS3_EE24_M_get_insert_unique_posERS1_;	.scl	2;	.type	32;	.endef
	.seh_proc	_ZNSt8_Rb_treeIcSt4pairIKc4TileESt10_Select1stIS3_ESt4lessIcESaIS3_EE24_M_get_insert_unique_posERS1_
_ZNSt8_Rb_treeIcSt4pairIKc4TileESt10_Select1stIS3_ESt4lessIcESaIS3_EE24_M_get_insert_unique_posERS1_:
.LFB3977:
	pushq	%rbp
	.seh_pushreg	%rbp
	pushq	%rdi
	.seh_pushreg	%rdi
	pushq	%rsi
	.seh_pushreg	%rsi
	pushq	%rbx
	.seh_pushreg	%rbx
	subq	$40, %rsp
	.seh_stackalloc	40
	.seh_endprologue
	movq	%rcx, %rbp
	movq	%r8, %rsi
	movq	16(%rdx), %rbx
	leaq	8(%rdx), %rdi
	movl	$1, %ecx
	jmp	.L63
.L64:
	movq	24(%rbx), %rax
.L65:
	movq	%rbx, %rdi
	movq	%rax, %rbx
.L63:
	testq	%rbx, %rbx
	je	.L71
	movzbl	32(%rbx), %eax
	cmpb	%al, (%rsi)
	setl	%cl
	jge	.L64
	movq	16(%rbx), %rax
	jmp	.L65
.L71:
	movq	%rdi, %rax
	testb	%cl, %cl
	je	.L67
	cmpq	%rdi, 24(%rdx)
	je	.L72
	movq	%rdi, %rcx
	call	_ZSt18_Rb_tree_decrementPSt18_Rb_tree_node_base
.L67:
	movzbl	(%rsi), %edx
	cmpb	%dl, 32(%rax)
	jge	.L70
	movq	%rbx, 0(%rbp)
	movq	%rdi, 8(%rbp)
.L62:
	movq	%rbp, %rax
	addq	$40, %rsp
	popq	%rbx
	popq	%rsi
	popq	%rdi
	popq	%rbp
	ret
.L72:
	movq	%rbx, 0(%rbp)
	movq	%rdi, 8(%rbp)
	jmp	.L62
.L70:
	movq	%rax, 0(%rbp)
	movq	$0, 8(%rbp)
	jmp	.L62
	.seh_endproc
	.section	.text$_ZNSt8_Rb_treeIcSt4pairIKc4TileESt10_Select1stIS3_ESt4lessIcESaIS3_EE29_M_get_insert_hint_unique_posESt23_Rb_tree_const_iteratorIS3_ERS1_,"x"
	.linkonce discard
	.align 2
	.globl	_ZNSt8_Rb_treeIcSt4pairIKc4TileESt10_Select1stIS3_ESt4lessIcESaIS3_EE29_M_get_insert_hint_unique_posESt23_Rb_tree_const_iteratorIS3_ERS1_
	.def	_ZNSt8_Rb_treeIcSt4pairIKc4TileESt10_Select1stIS3_ESt4lessIcESaIS3_EE29_M_get_insert_hint_unique_posESt23_Rb_tree_const_iteratorIS3_ERS1_;	.scl	2;	.type	32;	.endef
	.seh_proc	_ZNSt8_Rb_treeIcSt4pairIKc4TileESt10_Select1stIS3_ESt4lessIcESaIS3_EE29_M_get_insert_hint_unique_posESt23_Rb_tree_const_iteratorIS3_ERS1_
_ZNSt8_Rb_treeIcSt4pairIKc4TileESt10_Select1stIS3_ESt4lessIcESaIS3_EE29_M_get_insert_hint_unique_posESt23_Rb_tree_const_iteratorIS3_ERS1_:
.LFB3768:
	pushq	%r12
	.seh_pushreg	%r12
	pushq	%rbp
	.seh_pushreg	%rbp
	pushq	%rdi
	.seh_pushreg	%rdi
	pushq	%rsi
	.seh_pushreg	%rsi
	pushq	%rbx
	.seh_pushreg	%rbx
	subq	$32, %rsp
	.seh_stackalloc	32
	.seh_endprologue
	movq	%rcx, %rbp
	movq	%rdx, %r12
	movq	%r8, %rbx
	movq	%r9, %rsi
	leaq	8(%rdx), %rax
	cmpq	%rax, %r8
	je	.L87
	movzbl	(%r9), %edi
	movzbl	32(%r8), %eax
	cmpb	%dil, %al
	jle	.L77
	movq	24(%rdx), %rax
	cmpq	%r8, %rax
	je	.L88
	movq	%r8, %rcx
	call	_ZSt18_Rb_tree_decrementPSt18_Rb_tree_node_base
	cmpb	%dil, 32(%rax)
	jge	.L80
	cmpq	$0, 24(%rax)
	je	.L89
	movq	%rbx, 0(%rbp)
	movq	%rbx, 8(%rbp)
	jmp	.L73
.L87:
	cmpq	$0, 40(%rdx)
	je	.L75
	movq	32(%rdx), %rax
	movzbl	32(%rax), %edi
	cmpb	%dil, (%r9)
	jle	.L75
	movq	$0, (%rcx)
	movq	%rax, 8(%rcx)
	jmp	.L73
.L75:
	movq	%rsi, %r8
	movq	%r12, %rdx
	movq	%rbp, %rcx
	call	_ZNSt8_Rb_treeIcSt4pairIKc4TileESt10_Select1stIS3_ESt4lessIcESaIS3_EE24_M_get_insert_unique_posERS1_
.L73:
	movq	%rbp, %rax
	addq	$32, %rsp
	popq	%rbx
	popq	%rsi
	popq	%rdi
	popq	%rbp
	popq	%r12
	ret
.L88:
	movq	%rax, (%rcx)
	movq	%rax, 8(%rcx)
	jmp	.L73
.L89:
	movq	$0, 0(%rbp)
	movq	%rax, 8(%rbp)
	jmp	.L73
.L80:
	movq	%rsi, %r8
	movq	%r12, %rdx
	movq	%rbp, %rcx
	call	_ZNSt8_Rb_treeIcSt4pairIKc4TileESt10_Select1stIS3_ESt4lessIcESaIS3_EE24_M_get_insert_unique_posERS1_
	jmp	.L73
.L77:
	jge	.L82
	movq	32(%rdx), %rax
	cmpq	%r8, %rax
	je	.L90
	movq	%r8, %rcx
	call	_ZSt18_Rb_tree_incrementPSt18_Rb_tree_node_base
	cmpb	32(%rax), %dil
	jge	.L85
	cmpq	$0, 24(%rbx)
	je	.L91
	movq	%rax, 0(%rbp)
	movq	%rax, 8(%rbp)
	jmp	.L73
.L90:
	movq	$0, (%rcx)
	movq	%rax, 8(%rcx)
	jmp	.L73
.L91:
	movq	$0, 0(%rbp)
	movq	%rbx, 8(%rbp)
	jmp	.L73
.L85:
	movq	%rsi, %r8
	movq	%r12, %rdx
	movq	%rbp, %rcx
	call	_ZNSt8_Rb_treeIcSt4pairIKc4TileESt10_Select1stIS3_ESt4lessIcESaIS3_EE24_M_get_insert_unique_posERS1_
	jmp	.L73
.L82:
	movq	%r8, 0(%rbp)
	movq	$0, 8(%rcx)
	jmp	.L73
	.seh_endproc
	.section	.text$_ZNSt8_Rb_treeIcSt4pairIKc4TileESt10_Select1stIS3_ESt4lessIcESaIS3_EE14_M_insert_nodeEPSt18_Rb_tree_node_baseSB_PSt13_Rb_tree_nodeIS3_E,"x"
	.linkonce discard
	.align 2
	.globl	_ZNSt8_Rb_treeIcSt4pairIKc4TileESt10_Select1stIS3_ESt4lessIcESaIS3_EE14_M_insert_nodeEPSt18_Rb_tree_node_baseSB_PSt13_Rb_tree_nodeIS3_E
	.def	_ZNSt8_Rb_treeIcSt4pairIKc4TileESt10_Select1stIS3_ESt4lessIcESaIS3_EE14_M_insert_nodeEPSt18_Rb_tree_node_baseSB_PSt13_Rb_tree_nodeIS3_E;	.scl	2;	.type	32;	.endef
	.seh_proc	_ZNSt8_Rb_treeIcSt4pairIKc4TileESt10_Select1stIS3_ESt4lessIcESaIS3_EE14_M_insert_nodeEPSt18_Rb_tree_node_baseSB_PSt13_Rb_tree_nodeIS3_E
_ZNSt8_Rb_treeIcSt4pairIKc4TileESt10_Select1stIS3_ESt4lessIcESaIS3_EE14_M_insert_nodeEPSt18_Rb_tree_node_baseSB_PSt13_Rb_tree_nodeIS3_E:
.LFB3985:
	pushq	%rsi
	.seh_pushreg	%rsi
	pushq	%rbx
	.seh_pushreg	%rbx
	subq	$40, %rsp
	.seh_stackalloc	40
	.seh_endprologue
	movq	%rcx, %rbx
	movq	%r9, %rsi
	testq	%rdx, %rdx
	je	.L97
	movl	$1, %ecx
.L93:
	movzbl	%cl, %ecx
	leaq	8(%rbx), %r9
	movq	%rsi, %rdx
	call	_ZSt29_Rb_tree_insert_and_rebalancebPSt18_Rb_tree_node_baseS0_RS_
	movq	40(%rbx), %rax
	addq	$1, %rax
	movq	%rax, 40(%rbx)
	movq	%rsi, %rax
	addq	$40, %rsp
	popq	%rbx
	popq	%rsi
	ret
.L97:
	leaq	8(%rcx), %rax
	cmpq	%rax, %r8
	je	.L95
	movzbl	32(%r9), %eax
	cmpb	%al, 32(%r8)
	jg	.L96
	movl	$0, %ecx
	jmp	.L93
.L95:
	movl	$1, %ecx
	jmp	.L93
.L96:
	movl	$1, %ecx
	jmp	.L93
	.seh_endproc
	.section	.text$_ZNSt8_Rb_treeIcSt4pairIKc4TileESt10_Select1stIS3_ESt4lessIcESaIS3_EE10_Auto_node9_M_insertES0_IPSt18_Rb_tree_node_baseSC_E,"x"
	.linkonce discard
	.align 2
	.globl	_ZNSt8_Rb_treeIcSt4pairIKc4TileESt10_Select1stIS3_ESt4lessIcESaIS3_EE10_Auto_node9_M_insertES0_IPSt18_Rb_tree_node_baseSC_E
	.def	_ZNSt8_Rb_treeIcSt4pairIKc4TileESt10_Select1stIS3_ESt4lessIcESaIS3_EE10_Auto_node9_M_insertES0_IPSt18_Rb_tree_node_baseSC_E;	.scl	2;	.type	32;	.endef
	.seh_proc	_ZNSt8_Rb_treeIcSt4pairIKc4TileESt10_Select1stIS3_ESt4lessIcESaIS3_EE10_Auto_node9_M_insertES0_IPSt18_Rb_tree_node_baseSC_E
_ZNSt8_Rb_treeIcSt4pairIKc4TileESt10_Select1stIS3_ESt4lessIcESaIS3_EE10_Auto_node9_M_insertES0_IPSt18_Rb_tree_node_baseSC_E:
.LFB3770:
	pushq	%rbx
	.seh_pushreg	%rbx
	subq	$32, %rsp
	.seh_stackalloc	32
	.seh_endprologue
	movq	%rcx, %rbx
	movq	(%rdx), %rax
	movq	(%rcx), %rcx
	movq	8(%rbx), %r9
	movq	8(%rdx), %r8
	movq	%rax, %rdx
	call	_ZNSt8_Rb_treeIcSt4pairIKc4TileESt10_Select1stIS3_ESt4lessIcESaIS3_EE14_M_insert_nodeEPSt18_Rb_tree_node_baseSB_PSt13_Rb_tree_nodeIS3_E
	movq	$0, 8(%rbx)
	addq	$32, %rsp
	popq	%rbx
	ret
	.seh_endproc
	.section	.text$_ZNSt15__new_allocatorISt6vectorI4TileSaIS1_EEE10deallocateEPS3_y,"x"
	.linkonce discard
	.align 2
	.globl	_ZNSt15__new_allocatorISt6vectorI4TileSaIS1_EEE10deallocateEPS3_y
	.def	_ZNSt15__new_allocatorISt6vectorI4TileSaIS1_EEE10deallocateEPS3_y;	.scl	2;	.type	32;	.endef
	.seh_proc	_ZNSt15__new_allocatorISt6vectorI4TileSaIS1_EEE10deallocateEPS3_y
_ZNSt15__new_allocatorISt6vectorI4TileSaIS1_EEE10deallocateEPS3_y:
.LFB4020:
	subq	$40, %rsp
	.seh_stackalloc	40
	.seh_endprologue
	movq	%rdx, %rcx
	leaq	(%r8,%r8,2), %rdx
	salq	$3, %rdx
	call	_ZdlPvy
	nop
	addq	$40, %rsp
	ret
	.seh_endproc
	.section	.text$_ZNSt12_Vector_baseISt6vectorI4TileSaIS1_EESaIS3_EED2Ev,"x"
	.linkonce discard
	.align 2
	.globl	_ZNSt12_Vector_baseISt6vectorI4TileSaIS1_EESaIS3_EED2Ev
	.def	_ZNSt12_Vector_baseISt6vectorI4TileSaIS1_EESaIS3_EED2Ev;	.scl	2;	.type	32;	.endef
	.seh_proc	_ZNSt12_Vector_baseISt6vectorI4TileSaIS1_EESaIS3_EED2Ev
_ZNSt12_Vector_baseISt6vectorI4TileSaIS1_EESaIS3_EED2Ev:
.LFB3293:
	subq	$40, %rsp
	.seh_stackalloc	40
	.seh_endprologue
	movq	(%rcx), %rdx
	movq	16(%rcx), %r8
	subq	%rdx, %r8
	sarq	$3, %r8
	movabsq	$-6148914691236517205, %rax
	imulq	%rax, %r8
	testq	%rdx, %rdx
	je	.L100
	call	_ZNSt15__new_allocatorISt6vectorI4TileSaIS1_EEE10deallocateEPS3_y
	nop
.L100:
	addq	$40, %rsp
	ret
	.seh_endproc
	.section	.text$_ZNSt15__new_allocatorI4TileE10deallocateEPS0_y,"x"
	.linkonce discard
	.align 2
	.globl	_ZNSt15__new_allocatorI4TileE10deallocateEPS0_y
	.def	_ZNSt15__new_allocatorI4TileE10deallocateEPS0_y;	.scl	2;	.type	32;	.endef
	.seh_proc	_ZNSt15__new_allocatorI4TileE10deallocateEPS0_y
_ZNSt15__new_allocatorI4TileE10deallocateEPS0_y:
.LFB4023:
	subq	$40, %rsp
	.seh_stackalloc	40
	.seh_endprologue
	movq	%rdx, %rcx
	leaq	0(,%r8,4), %rdx
	call	_ZdlPvy
	nop
	addq	$40, %rsp
	ret
	.seh_endproc
	.section	.text$_ZNSt12_Vector_baseI4TileSaIS0_EED2Ev,"x"
	.linkonce discard
	.align 2
	.globl	_ZNSt12_Vector_baseI4TileSaIS0_EED2Ev
	.def	_ZNSt12_Vector_baseI4TileSaIS0_EED2Ev;	.scl	2;	.type	32;	.endef
	.seh_proc	_ZNSt12_Vector_baseI4TileSaIS0_EED2Ev
_ZNSt12_Vector_baseI4TileSaIS0_EED2Ev:
.LFB3313:
	subq	$40, %rsp
	.seh_stackalloc	40
	.seh_endprologue
	movq	(%rcx), %rdx
	movq	16(%rcx), %r8
	subq	%rdx, %r8
	sarq	$2, %r8
	testq	%rdx, %rdx
	je	.L103
	call	_ZNSt15__new_allocatorI4TileE10deallocateEPS0_y
	nop
.L103:
	addq	$40, %rsp
	ret
	.seh_endproc
	.section	.text$_ZNSt6vectorI4TileSaIS0_EED1Ev,"x"
	.linkonce discard
	.align 2
	.globl	_ZNSt6vectorI4TileSaIS0_EED1Ev
	.def	_ZNSt6vectorI4TileSaIS0_EED1Ev;	.scl	2;	.type	32;	.endef
	.seh_proc	_ZNSt6vectorI4TileSaIS0_EED1Ev
_ZNSt6vectorI4TileSaIS0_EED1Ev:
.LFB3317:
	subq	$40, %rsp
	.seh_stackalloc	40
	.seh_endprologue
	call	_ZNSt12_Vector_baseI4TileSaIS0_EED2Ev
	nop
	addq	$40, %rsp
	ret
	.seh_endproc
	.section	.text$_ZSt8_DestroyIPSt6vectorI4TileSaIS1_EEEvT_S5_,"x"
	.linkonce discard
	.globl	_ZSt8_DestroyIPSt6vectorI4TileSaIS1_EEEvT_S5_
	.def	_ZSt8_DestroyIPSt6vectorI4TileSaIS1_EEEvT_S5_;	.scl	2;	.type	32;	.endef
	.seh_proc	_ZSt8_DestroyIPSt6vectorI4TileSaIS1_EEEvT_S5_
_ZSt8_DestroyIPSt6vectorI4TileSaIS1_EEEvT_S5_:
.LFB3813:
	pushq	%rsi
	.seh_pushreg	%rsi
	pushq	%rbx
	.seh_pushreg	%rbx
	subq	$40, %rsp
	.seh_stackalloc	40
	.seh_endprologue
	movq	%rcx, %rbx
	movq	%rdx, %rsi
	jmp	.L107
.L108:
	movq	%rbx, %rcx
	call	_ZNSt6vectorI4TileSaIS0_EED1Ev
	addq	$24, %rbx
.L107:
	cmpq	%rbx, %rsi
	jne	.L108
	addq	$40, %rsp
	popq	%rbx
	popq	%rsi
	ret
	.seh_endproc
	.section	.text$_ZNSt6vectorIS_I4TileSaIS0_EESaIS2_EED1Ev,"x"
	.linkonce discard
	.align 2
	.globl	_ZNSt6vectorIS_I4TileSaIS0_EESaIS2_EED1Ev
	.def	_ZNSt6vectorIS_I4TileSaIS0_EESaIS2_EED1Ev;	.scl	2;	.type	32;	.endef
	.seh_proc	_ZNSt6vectorIS_I4TileSaIS0_EESaIS2_EED1Ev
_ZNSt6vectorIS_I4TileSaIS0_EESaIS2_EED1Ev:
.LFB3297:
	pushq	%rbx
	.seh_pushreg	%rbx
	subq	$32, %rsp
	.seh_stackalloc	32
	.seh_endprologue
	movq	%rcx, %rbx
	movq	8(%rcx), %rdx
	movq	(%rcx), %rcx
	call	_ZSt8_DestroyIPSt6vectorI4TileSaIS1_EEEvT_S5_
	movq	%rbx, %rcx
	call	_ZNSt12_Vector_baseISt6vectorI4TileSaIS1_EESaIS3_EED2Ev
	nop
	addq	$32, %rsp
	popq	%rbx
	ret
	.seh_endproc
	.section	.text$_ZNSt15__new_allocatorIcE10deallocateEPcy,"x"
	.linkonce discard
	.align 2
	.globl	_ZNSt15__new_allocatorIcE10deallocateEPcy
	.def	_ZNSt15__new_allocatorIcE10deallocateEPcy;	.scl	2;	.type	32;	.endef
	.seh_proc	_ZNSt15__new_allocatorIcE10deallocateEPcy
_ZNSt15__new_allocatorIcE10deallocateEPcy:
.LFB4043:
	subq	$40, %rsp
	.seh_stackalloc	40
	.seh_endprologue
	movq	%rdx, %rcx
	movq	%r8, %rdx
	call	_ZdlPvy
	nop
	addq	$40, %rsp
	ret
	.seh_endproc
	.section	.text$_ZNSt12_Vector_baseIcSaIcEED2Ev,"x"
	.linkonce discard
	.align 2
	.globl	_ZNSt12_Vector_baseIcSaIcEED2Ev
	.def	_ZNSt12_Vector_baseIcSaIcEED2Ev;	.scl	2;	.type	32;	.endef
	.seh_proc	_ZNSt12_Vector_baseIcSaIcEED2Ev
_ZNSt12_Vector_baseIcSaIcEED2Ev:
.LFB3522:
	subq	$40, %rsp
	.seh_stackalloc	40
	.seh_endprologue
	movq	(%rcx), %rdx
	movq	16(%rcx), %r8
	subq	%rdx, %r8
	testq	%rdx, %rdx
	je	.L111
	call	_ZNSt15__new_allocatorIcE10deallocateEPcy
	nop
.L111:
	addq	$40, %rsp
	ret
	.seh_endproc
	.section	.text$_ZNSt6vectorIcSaIcEED1Ev,"x"
	.linkonce discard
	.align 2
	.globl	_ZNSt6vectorIcSaIcEED1Ev
	.def	_ZNSt6vectorIcSaIcEED1Ev;	.scl	2;	.type	32;	.endef
	.seh_proc	_ZNSt6vectorIcSaIcEED1Ev
_ZNSt6vectorIcSaIcEED1Ev:
.LFB3271:
	subq	$40, %rsp
	.seh_stackalloc	40
	.seh_endprologue
	call	_ZNSt12_Vector_baseIcSaIcEED2Ev
	nop
	addq	$40, %rsp
	ret
	.seh_endproc
	.section	.text$_ZSt8_DestroyIPSt6vectorIcSaIcEEEvT_S4_,"x"
	.linkonce discard
	.globl	_ZSt8_DestroyIPSt6vectorIcSaIcEEEvT_S4_
	.def	_ZSt8_DestroyIPSt6vectorIcSaIcEEEvT_S4_;	.scl	2;	.type	32;	.endef
	.seh_proc	_ZSt8_DestroyIPSt6vectorIcSaIcEEEvT_S4_
_ZSt8_DestroyIPSt6vectorIcSaIcEEEvT_S4_:
.LFB3807:
	pushq	%rsi
	.seh_pushreg	%rsi
	pushq	%rbx
	.seh_pushreg	%rbx
	subq	$40, %rsp
	.seh_stackalloc	40
	.seh_endprologue
	movq	%rcx, %rbx
	movq	%rdx, %rsi
	jmp	.L115
.L116:
	movq	%rbx, %rcx
	call	_ZNSt6vectorIcSaIcEED1Ev
	addq	$24, %rbx
.L115:
	cmpq	%rbx, %rsi
	jne	.L116
	addq	$40, %rsp
	popq	%rbx
	popq	%rsi
	ret
	.seh_endproc
	.section	.text$_ZNSt15__new_allocatorIcE8allocateEyPKv,"x"
	.linkonce discard
	.align 2
	.globl	_ZNSt15__new_allocatorIcE8allocateEyPKv
	.def	_ZNSt15__new_allocatorIcE8allocateEyPKv;	.scl	2;	.type	32;	.endef
	.seh_proc	_ZNSt15__new_allocatorIcE8allocateEyPKv
_ZNSt15__new_allocatorIcE8allocateEyPKv:
.LFB4101:
	subq	$40, %rsp
	.seh_stackalloc	40
	.seh_endprologue
	movq	%rdx, %rcx
	testq	%rdx, %rdx
	js	.L119
	call	_Znwy
	addq	$40, %rsp
	ret
.L119:
	call	_ZSt17__throw_bad_allocv
	nop
	.seh_endproc
	.section	.text$_ZNSt12_Vector_baseIcSaIcEE17_M_create_storageEy,"x"
	.linkonce discard
	.align 2
	.globl	_ZNSt12_Vector_baseIcSaIcEE17_M_create_storageEy
	.def	_ZNSt12_Vector_baseIcSaIcEE17_M_create_storageEy;	.scl	2;	.type	32;	.endef
	.seh_proc	_ZNSt12_Vector_baseIcSaIcEE17_M_create_storageEy
_ZNSt12_Vector_baseIcSaIcEE17_M_create_storageEy:
.LFB3815:
	pushq	%rsi
	.seh_pushreg	%rsi
	pushq	%rbx
	.seh_pushreg	%rbx
	subq	$40, %rsp
	.seh_stackalloc	40
	.seh_endprologue
	movq	%rcx, %rbx
	movq	%rdx, %rsi
	testq	%rdx, %rdx
	je	.L122
	movl	$0, %r8d
	call	_ZNSt15__new_allocatorIcE8allocateEyPKv
.L121:
	movq	%rax, (%rbx)
	movq	%rax, 8(%rbx)
	addq	%rsi, %rax
	movq	%rax, 16(%rbx)
	addq	$40, %rsp
	popq	%rbx
	popq	%rsi
	ret
.L122:
	movl	$0, %eax
	jmp	.L121
	.seh_endproc
	.section	.text$_ZNSt15__new_allocatorISt6vectorIcSaIcEEE10deallocateEPS2_y,"x"
	.linkonce discard
	.align 2
	.globl	_ZNSt15__new_allocatorISt6vectorIcSaIcEEE10deallocateEPS2_y
	.def	_ZNSt15__new_allocatorISt6vectorIcSaIcEEE10deallocateEPS2_y;	.scl	2;	.type	32;	.endef
	.seh_proc	_ZNSt15__new_allocatorISt6vectorIcSaIcEEE10deallocateEPS2_y
_ZNSt15__new_allocatorISt6vectorIcSaIcEEE10deallocateEPS2_y:
.LFB4106:
	subq	$40, %rsp
	.seh_stackalloc	40
	.seh_endprologue
	movq	%rdx, %rcx
	leaq	(%r8,%r8,2), %rdx
	salq	$3, %rdx
	call	_ZdlPvy
	nop
	addq	$40, %rsp
	ret
	.seh_endproc
	.section	.text$_ZNSt12_Vector_baseISt6vectorIcSaIcEESaIS2_EED2Ev,"x"
	.linkonce discard
	.align 2
	.globl	_ZNSt12_Vector_baseISt6vectorIcSaIcEESaIS2_EED2Ev
	.def	_ZNSt12_Vector_baseISt6vectorIcSaIcEESaIS2_EED2Ev;	.scl	2;	.type	32;	.endef
	.seh_proc	_ZNSt12_Vector_baseISt6vectorIcSaIcEESaIS2_EED2Ev
_ZNSt12_Vector_baseISt6vectorIcSaIcEESaIS2_EED2Ev:
.LFB3543:
	subq	$40, %rsp
	.seh_stackalloc	40
	.seh_endprologue
	movq	(%rcx), %rdx
	movq	16(%rcx), %r8
	subq	%rdx, %r8
	sarq	$3, %r8
	movabsq	$-6148914691236517205, %rax
	imulq	%rax, %r8
	testq	%rdx, %rdx
	je	.L124
	call	_ZNSt15__new_allocatorISt6vectorIcSaIcEEE10deallocateEPS2_y
	nop
.L124:
	addq	$40, %rsp
	ret
	.seh_endproc
	.section	.text$_ZNSt6vectorIS_IcSaIcEESaIS1_EED1Ev,"x"
	.linkonce discard
	.align 2
	.globl	_ZNSt6vectorIS_IcSaIcEESaIS1_EED1Ev
	.def	_ZNSt6vectorIS_IcSaIcEESaIS1_EED1Ev;	.scl	2;	.type	32;	.endef
	.seh_proc	_ZNSt6vectorIS_IcSaIcEESaIS1_EED1Ev
_ZNSt6vectorIS_IcSaIcEESaIS1_EED1Ev:
.LFB3285:
	pushq	%rbx
	.seh_pushreg	%rbx
	subq	$32, %rsp
	.seh_stackalloc	32
	.seh_endprologue
	movq	%rcx, %rbx
	movq	8(%rcx), %rdx
	movq	(%rcx), %rcx
	call	_ZSt8_DestroyIPSt6vectorIcSaIcEEEvT_S4_
	movq	%rbx, %rcx
	call	_ZNSt12_Vector_baseISt6vectorIcSaIcEESaIS2_EED2Ev
	nop
	addq	$32, %rsp
	popq	%rbx
	ret
	.seh_endproc
	.section	.text$_ZNSt15__new_allocatorISt6vectorIcSaIcEEE8allocateEyPKv,"x"
	.linkonce discard
	.align 2
	.globl	_ZNSt15__new_allocatorISt6vectorIcSaIcEEE8allocateEyPKv
	.def	_ZNSt15__new_allocatorISt6vectorIcSaIcEEE8allocateEyPKv;	.scl	2;	.type	32;	.endef
	.seh_proc	_ZNSt15__new_allocatorISt6vectorIcSaIcEEE8allocateEyPKv
_ZNSt15__new_allocatorISt6vectorIcSaIcEEE8allocateEyPKv:
.LFB4108:
	subq	$40, %rsp
	.seh_stackalloc	40
	.seh_endprologue
	movabsq	$384307168202282325, %rax
	cmpq	%rdx, %rax
	jb	.L130
	leaq	(%rdx,%rdx,2), %rcx
	salq	$3, %rcx
	call	_Znwy
	addq	$40, %rsp
	ret
.L130:
	movabsq	$768614336404564650, %rax
	cmpq	%rdx, %rax
	jnb	.L129
	call	_ZSt28__throw_bad_array_new_lengthv
.L129:
	call	_ZSt17__throw_bad_allocv
	nop
	.seh_endproc
	.section	.text$_ZNSt15__new_allocatorI4TileE8allocateEyPKv,"x"
	.linkonce discard
	.align 2
	.globl	_ZNSt15__new_allocatorI4TileE8allocateEyPKv
	.def	_ZNSt15__new_allocatorI4TileE8allocateEyPKv;	.scl	2;	.type	32;	.endef
	.seh_proc	_ZNSt15__new_allocatorI4TileE8allocateEyPKv
_ZNSt15__new_allocatorI4TileE8allocateEyPKv:
.LFB4117:
	subq	$40, %rsp
	.seh_stackalloc	40
	.seh_endprologue
	movabsq	$2305843009213693951, %rax
	cmpq	%rdx, %rax
	jb	.L134
	leaq	0(,%rdx,4), %rcx
	call	_Znwy
	addq	$40, %rsp
	ret
.L134:
	movabsq	$4611686018427387903, %rax
	cmpq	%rdx, %rax
	jnb	.L133
	call	_ZSt28__throw_bad_array_new_lengthv
.L133:
	call	_ZSt17__throw_bad_allocv
	nop
	.seh_endproc
	.section .rdata,"dr"
.LC0:
	.ascii "vector::_M_realloc_insert\0"
	.section	.text$_ZNSt6vectorI4TileSaIS0_EE17_M_realloc_insertIJRKS0_EEEvN9__gnu_cxx17__normal_iteratorIPS0_S2_EEDpOT_,"x"
	.linkonce discard
	.align 2
	.globl	_ZNSt6vectorI4TileSaIS0_EE17_M_realloc_insertIJRKS0_EEEvN9__gnu_cxx17__normal_iteratorIPS0_S2_EEDpOT_
	.def	_ZNSt6vectorI4TileSaIS0_EE17_M_realloc_insertIJRKS0_EEEvN9__gnu_cxx17__normal_iteratorIPS0_S2_EEDpOT_;	.scl	2;	.type	32;	.endef
	.seh_proc	_ZNSt6vectorI4TileSaIS0_EE17_M_realloc_insertIJRKS0_EEEvN9__gnu_cxx17__normal_iteratorIPS0_S2_EEDpOT_
_ZNSt6vectorI4TileSaIS0_EE17_M_realloc_insertIJRKS0_EEEvN9__gnu_cxx17__normal_iteratorIPS0_S2_EEDpOT_:
.LFB3594:
	pushq	%r15
	.seh_pushreg	%r15
	pushq	%r14
	.seh_pushreg	%r14
	pushq	%r13
	.seh_pushreg	%r13
	pushq	%r12
	.seh_pushreg	%r12
	pushq	%rbp
	.seh_pushreg	%rbp
	pushq	%rdi
	.seh_pushreg	%rdi
	pushq	%rsi
	.seh_pushreg	%rsi
	pushq	%rbx
	.seh_pushreg	%rbx
	subq	$40, %rsp
	.seh_stackalloc	40
	.seh_endprologue
	movq	%rcx, %rbx
	movq	%rdx, %r13
	movq	%r8, %r15
	leaq	.LC0(%rip), %r8
	movl	$1, %edx
	call	_ZNKSt6vectorI4TileSaIS0_EE12_M_check_lenEyPKc
	movq	%rax, %rdi
	movq	(%rbx), %r12
	movq	8(%rbx), %rbp
	movq	%r13, %r14
	subq	%r12, %r14
	testq	%rax, %rax
	je	.L140
	movl	$0, %r8d
	movq	%rax, %rdx
	movq	%rbx, %rcx
	call	_ZNSt15__new_allocatorI4TileE8allocateEyPKv
	movq	%rax, %rsi
.L136:
	movl	(%r15), %eax
	movl	%eax, (%rsi,%r14)
	testq	%r14, %r14
	jg	.L141
.L137:
	leaq	4(%rsi,%r14), %r14
	subq	%r13, %rbp
	testq	%rbp, %rbp
	jg	.L142
.L138:
	addq	%rbp, %r14
	movq	16(%rbx), %r8
	subq	%r12, %r8
	sarq	$2, %r8
	testq	%r12, %r12
	je	.L139
	movq	%r12, %rdx
	movq	%rbx, %rcx
	call	_ZNSt15__new_allocatorI4TileE10deallocateEPS0_y
.L139:
	movq	%rsi, (%rbx)
	movq	%r14, 8(%rbx)
	leaq	(%rsi,%rdi,4), %rax
	movq	%rax, 16(%rbx)
	addq	$40, %rsp
	popq	%rbx
	popq	%rsi
	popq	%rdi
	popq	%rbp
	popq	%r12
	popq	%r13
	popq	%r14
	popq	%r15
	ret
.L140:
	movl	$0, %esi
	jmp	.L136
.L141:
	movq	%r14, %r8
	movq	%r12, %rdx
	movq	%rsi, %rcx
	call	memmove
	jmp	.L137
.L142:
	movq	%rbp, %r8
	movq	%r13, %rdx
	movq	%r14, %rcx
	call	memmove
	jmp	.L138
	.seh_endproc
	.section	.text$_ZNSt6vectorI4TileSaIS0_EE9push_backERKS0_,"x"
	.linkonce discard
	.align 2
	.globl	_ZNSt6vectorI4TileSaIS0_EE9push_backERKS0_
	.def	_ZNSt6vectorI4TileSaIS0_EE9push_backERKS0_;	.scl	2;	.type	32;	.endef
	.seh_proc	_ZNSt6vectorI4TileSaIS0_EE9push_backERKS0_
_ZNSt6vectorI4TileSaIS0_EE9push_backERKS0_:
.LFB3323:
	subq	$40, %rsp
	.seh_stackalloc	40
	.seh_endprologue
	movq	8(%rcx), %rax
	cmpq	16(%rcx), %rax
	je	.L144
	movl	(%rdx), %edx
	movl	%edx, (%rax)
	movq	8(%rcx), %rax
	addq	$4, %rax
	movq	%rax, 8(%rcx)
.L143:
	addq	$40, %rsp
	ret
.L144:
	movq	%rdx, %r8
	movq	%rax, %rdx
	call	_ZNSt6vectorI4TileSaIS0_EE17_M_realloc_insertIJRKS0_EEEvN9__gnu_cxx17__normal_iteratorIPS0_S2_EEDpOT_
	jmp	.L143
	.seh_endproc
	.section	.text$_ZNSt15__new_allocatorISt6vectorI4TileSaIS1_EEE8allocateEyPKv,"x"
	.linkonce discard
	.align 2
	.globl	_ZNSt15__new_allocatorISt6vectorI4TileSaIS1_EEE8allocateEyPKv
	.def	_ZNSt15__new_allocatorISt6vectorI4TileSaIS1_EEE8allocateEyPKv;	.scl	2;	.type	32;	.endef
	.seh_proc	_ZNSt15__new_allocatorISt6vectorI4TileSaIS1_EEE8allocateEyPKv
_ZNSt15__new_allocatorISt6vectorI4TileSaIS1_EEE8allocateEyPKv:
.LFB4128:
	subq	$40, %rsp
	.seh_stackalloc	40
	.seh_endprologue
	movabsq	$384307168202282325, %rax
	cmpq	%rdx, %rax
	jb	.L149
	leaq	(%rdx,%rdx,2), %rcx
	salq	$3, %rcx
	call	_Znwy
	addq	$40, %rsp
	ret
.L149:
	movabsq	$768614336404564650, %rax
	cmpq	%rdx, %rax
	jnb	.L148
	call	_ZSt28__throw_bad_array_new_lengthv
.L148:
	call	_ZSt17__throw_bad_allocv
	nop
	.seh_endproc
	.section	.text$_ZNSt12_Vector_baseISt6vectorI4TileSaIS1_EESaIS3_EE17_M_create_storageEy,"x"
	.linkonce discard
	.align 2
	.globl	_ZNSt12_Vector_baseISt6vectorI4TileSaIS1_EESaIS3_EE17_M_create_storageEy
	.def	_ZNSt12_Vector_baseISt6vectorI4TileSaIS1_EESaIS3_EE17_M_create_storageEy;	.scl	2;	.type	32;	.endef
	.seh_proc	_ZNSt12_Vector_baseISt6vectorI4TileSaIS1_EESaIS3_EE17_M_create_storageEy
_ZNSt12_Vector_baseISt6vectorI4TileSaIS1_EESaIS3_EE17_M_create_storageEy:
.LFB3854:
	pushq	%rsi
	.seh_pushreg	%rsi
	pushq	%rbx
	.seh_pushreg	%rbx
	subq	$40, %rsp
	.seh_stackalloc	40
	.seh_endprologue
	movq	%rcx, %rbx
	movq	%rdx, %rsi
	testq	%rdx, %rdx
	je	.L152
	movl	$0, %r8d
	call	_ZNSt15__new_allocatorISt6vectorI4TileSaIS1_EEE8allocateEyPKv
.L151:
	movq	%rax, (%rbx)
	movq	%rax, 8(%rbx)
	leaq	(%rsi,%rsi,2), %rdx
	leaq	(%rax,%rdx,8), %rax
	movq	%rax, 16(%rbx)
	addq	$40, %rsp
	popq	%rbx
	popq	%rsi
	ret
.L152:
	movl	$0, %eax
	jmp	.L151
	.seh_endproc
	.section	.text$_ZNSt12_Vector_baseISt6vectorI4TileSaIS1_EESaIS3_EEC2EyRKS4_,"x"
	.linkonce discard
	.align 2
	.globl	_ZNSt12_Vector_baseISt6vectorI4TileSaIS1_EESaIS3_EEC2EyRKS4_
	.def	_ZNSt12_Vector_baseISt6vectorI4TileSaIS1_EESaIS3_EEC2EyRKS4_;	.scl	2;	.type	32;	.endef
	.seh_proc	_ZNSt12_Vector_baseISt6vectorI4TileSaIS1_EESaIS3_EEC2EyRKS4_
_ZNSt12_Vector_baseISt6vectorI4TileSaIS1_EESaIS3_EEC2EyRKS4_:
.LFB3608:
	subq	$40, %rsp
	.seh_stackalloc	40
	.seh_endprologue
	movq	$0, (%rcx)
	movq	$0, 8(%rcx)
	movq	$0, 16(%rcx)
	call	_ZNSt12_Vector_baseISt6vectorI4TileSaIS1_EESaIS3_EE17_M_create_storageEy
	nop
	addq	$40, %rsp
	ret
	.seh_endproc
	.section	.text$_ZNSt15__new_allocatorISt13_Rb_tree_nodeISt4pairIK4TilecEEE10deallocateEPS5_y,"x"
	.linkonce discard
	.align 2
	.globl	_ZNSt15__new_allocatorISt13_Rb_tree_nodeISt4pairIK4TilecEEE10deallocateEPS5_y
	.def	_ZNSt15__new_allocatorISt13_Rb_tree_nodeISt4pairIK4TilecEEE10deallocateEPS5_y;	.scl	2;	.type	32;	.endef
	.seh_proc	_ZNSt15__new_allocatorISt13_Rb_tree_nodeISt4pairIK4TilecEEE10deallocateEPS5_y
_ZNSt15__new_allocatorISt13_Rb_tree_nodeISt4pairIK4TilecEEE10deallocateEPS5_y:
.LFB4145:
	subq	$40, %rsp
	.seh_stackalloc	40
	.seh_endprologue
	movq	%rdx, %rcx
	leaq	(%r8,%r8,4), %rdx
	salq	$3, %rdx
	call	_ZdlPvy
	nop
	addq	$40, %rsp
	ret
	.seh_endproc
	.section	.text$_ZNSt8_Rb_treeI4TileSt4pairIKS0_cESt10_Select1stIS3_ESt4lessIS0_ESaIS3_EE8_M_eraseEPSt13_Rb_tree_nodeIS3_E,"x"
	.linkonce discard
	.align 2
	.globl	_ZNSt8_Rb_treeI4TileSt4pairIKS0_cESt10_Select1stIS3_ESt4lessIS0_ESaIS3_EE8_M_eraseEPSt13_Rb_tree_nodeIS3_E
	.def	_ZNSt8_Rb_treeI4TileSt4pairIKS0_cESt10_Select1stIS3_ESt4lessIS0_ESaIS3_EE8_M_eraseEPSt13_Rb_tree_nodeIS3_E;	.scl	2;	.type	32;	.endef
	.seh_proc	_ZNSt8_Rb_treeI4TileSt4pairIKS0_cESt10_Select1stIS3_ESt4lessIS0_ESaIS3_EE8_M_eraseEPSt13_Rb_tree_nodeIS3_E
_ZNSt8_Rb_treeI4TileSt4pairIKS0_cESt10_Select1stIS3_ESt4lessIS0_ESaIS3_EE8_M_eraseEPSt13_Rb_tree_nodeIS3_E:
.LFB3449:
	pushq	%rdi
	.seh_pushreg	%rdi
	pushq	%rsi
	.seh_pushreg	%rsi
	pushq	%rbx
	.seh_pushreg	%rbx
	subq	$32, %rsp
	.seh_stackalloc	32
	.seh_endprologue
	movq	%rcx, %rsi
	movq	%rdx, %rbx
.L156:
	testq	%rbx, %rbx
	je	.L158
	movq	24(%rbx), %rdx
	movq	%rsi, %rcx
	call	_ZNSt8_Rb_treeI4TileSt4pairIKS0_cESt10_Select1stIS3_ESt4lessIS0_ESaIS3_EE8_M_eraseEPSt13_Rb_tree_nodeIS3_E
	movq	16(%rbx), %rdi
	movl	$1, %r8d
	movq	%rbx, %rdx
	movq	%rsi, %rcx
	call	_ZNSt15__new_allocatorISt13_Rb_tree_nodeISt4pairIK4TilecEEE10deallocateEPS5_y
	movq	%rdi, %rbx
	jmp	.L156
.L158:
	addq	$32, %rsp
	popq	%rbx
	popq	%rsi
	popq	%rdi
	ret
	.seh_endproc
	.section	.text$_ZNSt8_Rb_treeI4TileSt4pairIKS0_cESt10_Select1stIS3_ESt4lessIS0_ESaIS3_EED1Ev,"x"
	.linkonce discard
	.align 2
	.globl	_ZNSt8_Rb_treeI4TileSt4pairIKS0_cESt10_Select1stIS3_ESt4lessIS0_ESaIS3_EED1Ev
	.def	_ZNSt8_Rb_treeI4TileSt4pairIKS0_cESt10_Select1stIS3_ESt4lessIS0_ESaIS3_EED1Ev;	.scl	2;	.type	32;	.endef
	.seh_proc	_ZNSt8_Rb_treeI4TileSt4pairIKS0_cESt10_Select1stIS3_ESt4lessIS0_ESaIS3_EED1Ev
_ZNSt8_Rb_treeI4TileSt4pairIKS0_cESt10_Select1stIS3_ESt4lessIS0_ESaIS3_EED1Ev:
.LFB3218:
	subq	$40, %rsp
	.seh_stackalloc	40
	.seh_endprologue
	movq	16(%rcx), %rdx
	call	_ZNSt8_Rb_treeI4TileSt4pairIKS0_cESt10_Select1stIS3_ESt4lessIS0_ESaIS3_EE8_M_eraseEPSt13_Rb_tree_nodeIS3_E
	nop
	addq	$40, %rsp
	ret
	.seh_endproc
	.section	.text$_ZNSt15__new_allocatorISt13_Rb_tree_nodeISt4pairIKc4TileEEE10deallocateEPS5_y,"x"
	.linkonce discard
	.align 2
	.globl	_ZNSt15__new_allocatorISt13_Rb_tree_nodeISt4pairIKc4TileEEE10deallocateEPS5_y
	.def	_ZNSt15__new_allocatorISt13_Rb_tree_nodeISt4pairIKc4TileEEE10deallocateEPS5_y;	.scl	2;	.type	32;	.endef
	.seh_proc	_ZNSt15__new_allocatorISt13_Rb_tree_nodeISt4pairIKc4TileEEE10deallocateEPS5_y
_ZNSt15__new_allocatorISt13_Rb_tree_nodeISt4pairIKc4TileEEE10deallocateEPS5_y:
.LFB4148:
	subq	$40, %rsp
	.seh_stackalloc	40
	.seh_endprologue
	movq	%rdx, %rcx
	leaq	(%r8,%r8,4), %rdx
	salq	$3, %rdx
	call	_ZdlPvy
	nop
	addq	$40, %rsp
	ret
	.seh_endproc
	.section	.text$_ZNSt8_Rb_treeIcSt4pairIKc4TileESt10_Select1stIS3_ESt4lessIcESaIS3_EE8_M_eraseEPSt13_Rb_tree_nodeIS3_E,"x"
	.linkonce discard
	.align 2
	.globl	_ZNSt8_Rb_treeIcSt4pairIKc4TileESt10_Select1stIS3_ESt4lessIcESaIS3_EE8_M_eraseEPSt13_Rb_tree_nodeIS3_E
	.def	_ZNSt8_Rb_treeIcSt4pairIKc4TileESt10_Select1stIS3_ESt4lessIcESaIS3_EE8_M_eraseEPSt13_Rb_tree_nodeIS3_E;	.scl	2;	.type	32;	.endef
	.seh_proc	_ZNSt8_Rb_treeIcSt4pairIKc4TileESt10_Select1stIS3_ESt4lessIcESaIS3_EE8_M_eraseEPSt13_Rb_tree_nodeIS3_E
_ZNSt8_Rb_treeIcSt4pairIKc4TileESt10_Select1stIS3_ESt4lessIcESaIS3_EE8_M_eraseEPSt13_Rb_tree_nodeIS3_E:
.LFB3468:
	pushq	%rdi
	.seh_pushreg	%rdi
	pushq	%rsi
	.seh_pushreg	%rsi
	pushq	%rbx
	.seh_pushreg	%rbx
	subq	$32, %rsp
	.seh_stackalloc	32
	.seh_endprologue
	movq	%rcx, %rsi
	movq	%rdx, %rbx
.L162:
	testq	%rbx, %rbx
	je	.L164
	movq	24(%rbx), %rdx
	movq	%rsi, %rcx
	call	_ZNSt8_Rb_treeIcSt4pairIKc4TileESt10_Select1stIS3_ESt4lessIcESaIS3_EE8_M_eraseEPSt13_Rb_tree_nodeIS3_E
	movq	16(%rbx), %rdi
	movl	$1, %r8d
	movq	%rbx, %rdx
	movq	%rsi, %rcx
	call	_ZNSt15__new_allocatorISt13_Rb_tree_nodeISt4pairIKc4TileEEE10deallocateEPS5_y
	movq	%rdi, %rbx
	jmp	.L162
.L164:
	addq	$32, %rsp
	popq	%rbx
	popq	%rsi
	popq	%rdi
	ret
	.seh_endproc
	.section	.text$_ZNSt8_Rb_treeIcSt4pairIKc4TileESt10_Select1stIS3_ESt4lessIcESaIS3_EED1Ev,"x"
	.linkonce discard
	.align 2
	.globl	_ZNSt8_Rb_treeIcSt4pairIKc4TileESt10_Select1stIS3_ESt4lessIcESaIS3_EED1Ev
	.def	_ZNSt8_Rb_treeIcSt4pairIKc4TileESt10_Select1stIS3_ESt4lessIcESaIS3_EED1Ev;	.scl	2;	.type	32;	.endef
	.seh_proc	_ZNSt8_Rb_treeIcSt4pairIKc4TileESt10_Select1stIS3_ESt4lessIcESaIS3_EED1Ev
_ZNSt8_Rb_treeIcSt4pairIKc4TileESt10_Select1stIS3_ESt4lessIcESaIS3_EED1Ev:
.LFB3235:
	subq	$40, %rsp
	.seh_stackalloc	40
	.seh_endprologue
	movq	16(%rcx), %rdx
	call	_ZNSt8_Rb_treeIcSt4pairIKc4TileESt10_Select1stIS3_ESt4lessIcESaIS3_EE8_M_eraseEPSt13_Rb_tree_nodeIS3_E
	nop
	addq	$40, %rsp
	ret
	.seh_endproc
	.section	.text$_ZNSt8_Rb_treeIcSt4pairIKc4TileESt10_Select1stIS3_ESt4lessIcESaIS3_EE10_Auto_nodeD1Ev,"x"
	.linkonce discard
	.align 2
	.globl	_ZNSt8_Rb_treeIcSt4pairIKc4TileESt10_Select1stIS3_ESt4lessIcESaIS3_EE10_Auto_nodeD1Ev
	.def	_ZNSt8_Rb_treeIcSt4pairIKc4TileESt10_Select1stIS3_ESt4lessIcESaIS3_EE10_Auto_nodeD1Ev;	.scl	2;	.type	32;	.endef
	.seh_proc	_ZNSt8_Rb_treeIcSt4pairIKc4TileESt10_Select1stIS3_ESt4lessIcESaIS3_EE10_Auto_nodeD1Ev
_ZNSt8_Rb_treeIcSt4pairIKc4TileESt10_Select1stIS3_ESt4lessIcESaIS3_EE10_Auto_nodeD1Ev:
.LFB3767:
	subq	$40, %rsp
	.seh_stackalloc	40
	.seh_endprologue
	movq	8(%rcx), %rdx
	testq	%rdx, %rdx
	je	.L166
	movq	(%rcx), %rcx
	movl	$1, %r8d
	call	_ZNSt15__new_allocatorISt13_Rb_tree_nodeISt4pairIKc4TileEEE10deallocateEPS5_y
	nop
.L166:
	addq	$40, %rsp
	ret
	.seh_endproc
	.section	.text$_ZNSt12_Vector_baseI4TileSaIS0_EE17_M_create_storageEy,"x"
	.linkonce discard
	.align 2
	.globl	_ZNSt12_Vector_baseI4TileSaIS0_EE17_M_create_storageEy
	.def	_ZNSt12_Vector_baseI4TileSaIS0_EE17_M_create_storageEy;	.scl	2;	.type	32;	.endef
	.seh_proc	_ZNSt12_Vector_baseI4TileSaIS0_EE17_M_create_storageEy
_ZNSt12_Vector_baseI4TileSaIS0_EE17_M_create_storageEy:
.LFB4176:
	pushq	%rsi
	.seh_pushreg	%rsi
	pushq	%rbx
	.seh_pushreg	%rbx
	subq	$40, %rsp
	.seh_stackalloc	40
	.seh_endprologue
	movq	%rcx, %rbx
	movq	%rdx, %rsi
	testq	%rdx, %rdx
	je	.L170
	movl	$0, %r8d
	call	_ZNSt15__new_allocatorI4TileE8allocateEyPKv
.L169:
	movq	%rax, (%rbx)
	movq	%rax, 8(%rbx)
	leaq	(%rax,%rsi,4), %rax
	movq	%rax, 16(%rbx)
	addq	$40, %rsp
	popq	%rbx
	popq	%rsi
	ret
.L170:
	movl	$0, %eax
	jmp	.L169
	.seh_endproc
	.section	.text$_ZNSt12_Vector_baseI4TileSaIS0_EEC2EyRKS1_,"x"
	.linkonce discard
	.align 2
	.globl	_ZNSt12_Vector_baseI4TileSaIS0_EEC2EyRKS1_
	.def	_ZNSt12_Vector_baseI4TileSaIS0_EEC2EyRKS1_;	.scl	2;	.type	32;	.endef
	.seh_proc	_ZNSt12_Vector_baseI4TileSaIS0_EEC2EyRKS1_
_ZNSt12_Vector_baseI4TileSaIS0_EEC2EyRKS1_:
.LFB4122:
	subq	$40, %rsp
	.seh_stackalloc	40
	.seh_endprologue
	movq	$0, (%rcx)
	movq	$0, 8(%rcx)
	movq	$0, 16(%rcx)
	call	_ZNSt12_Vector_baseI4TileSaIS0_EE17_M_create_storageEy
	nop
	addq	$40, %rsp
	ret
	.seh_endproc
	.section	.text$_ZNSt15__new_allocatorISt13_Rb_tree_nodeISt4pairIK4TilecEEE8allocateEyPKv,"x"
	.linkonce discard
	.align 2
	.globl	_ZNSt15__new_allocatorISt13_Rb_tree_nodeISt4pairIK4TilecEEE8allocateEyPKv
	.def	_ZNSt15__new_allocatorISt13_Rb_tree_nodeISt4pairIK4TilecEEE8allocateEyPKv;	.scl	2;	.type	32;	.endef
	.seh_proc	_ZNSt15__new_allocatorISt13_Rb_tree_nodeISt4pairIK4TilecEEE8allocateEyPKv
_ZNSt15__new_allocatorISt13_Rb_tree_nodeISt4pairIK4TilecEEE8allocateEyPKv:
.LFB4194:
	subq	$40, %rsp
	.seh_stackalloc	40
	.seh_endprologue
	movabsq	$230584300921369395, %rax
	cmpq	%rdx, %rax
	jb	.L175
	leaq	(%rdx,%rdx,4), %rcx
	salq	$3, %rcx
	call	_Znwy
	addq	$40, %rsp
	ret
.L175:
	movabsq	$461168601842738790, %rax
	cmpq	%rdx, %rax
	jnb	.L174
	call	_ZSt28__throw_bad_array_new_lengthv
.L174:
	call	_ZSt17__throw_bad_allocv
	nop
	.seh_endproc
	.section	.text$_ZNKSt8_Rb_treeI4TileSt4pairIKS0_cESt10_Select1stIS3_ESt4lessIS0_ESaIS3_EE11_Alloc_nodeclIRKS3_EEPSt13_Rb_tree_nodeIS3_EOT_,"x"
	.linkonce discard
	.align 2
	.globl	_ZNKSt8_Rb_treeI4TileSt4pairIKS0_cESt10_Select1stIS3_ESt4lessIS0_ESaIS3_EE11_Alloc_nodeclIRKS3_EEPSt13_Rb_tree_nodeIS3_EOT_
	.def	_ZNKSt8_Rb_treeI4TileSt4pairIKS0_cESt10_Select1stIS3_ESt4lessIS0_ESaIS3_EE11_Alloc_nodeclIRKS3_EEPSt13_Rb_tree_nodeIS3_EOT_;	.scl	2;	.type	32;	.endef
	.seh_proc	_ZNKSt8_Rb_treeI4TileSt4pairIKS0_cESt10_Select1stIS3_ESt4lessIS0_ESaIS3_EE11_Alloc_nodeclIRKS3_EEPSt13_Rb_tree_nodeIS3_EOT_
_ZNKSt8_Rb_treeI4TileSt4pairIKS0_cESt10_Select1stIS3_ESt4lessIS0_ESaIS3_EE11_Alloc_nodeclIRKS3_EEPSt13_Rb_tree_nodeIS3_EOT_:
.LFB4066:
	pushq	%rbx
	.seh_pushreg	%rbx
	subq	$32, %rsp
	.seh_stackalloc	32
	.seh_endprologue
	movq	%rdx, %rbx
	movq	(%rcx), %rcx
	movl	$0, %r8d
	movl	$1, %edx
	call	_ZNSt15__new_allocatorISt13_Rb_tree_nodeISt4pairIK4TilecEEE8allocateEyPKv
	movq	(%rbx), %rdx
	movq	%rdx, 32(%rax)
	addq	$32, %rsp
	popq	%rbx
	ret
	.seh_endproc
	.section	.text$_ZNSt8_Rb_treeI4TileSt4pairIKS0_cESt10_Select1stIS3_ESt4lessIS0_ESaIS3_EE10_M_insert_IRKS3_NS9_11_Alloc_nodeEEESt17_Rb_tree_iteratorIS3_EPSt18_Rb_tree_node_baseSH_OT_RT0_,"x"
	.linkonce discard
	.align 2
	.globl	_ZNSt8_Rb_treeI4TileSt4pairIKS0_cESt10_Select1stIS3_ESt4lessIS0_ESaIS3_EE10_M_insert_IRKS3_NS9_11_Alloc_nodeEEESt17_Rb_tree_iteratorIS3_EPSt18_Rb_tree_node_baseSH_OT_RT0_
	.def	_ZNSt8_Rb_treeI4TileSt4pairIKS0_cESt10_Select1stIS3_ESt4lessIS0_ESaIS3_EE10_M_insert_IRKS3_NS9_11_Alloc_nodeEEESt17_Rb_tree_iteratorIS3_EPSt18_Rb_tree_node_baseSH_OT_RT0_;	.scl	2;	.type	32;	.endef
	.seh_proc	_ZNSt8_Rb_treeI4TileSt4pairIKS0_cESt10_Select1stIS3_ESt4lessIS0_ESaIS3_EE10_M_insert_IRKS3_NS9_11_Alloc_nodeEEESt17_Rb_tree_iteratorIS3_EPSt18_Rb_tree_node_baseSH_OT_RT0_
_ZNSt8_Rb_treeI4TileSt4pairIKS0_cESt10_Select1stIS3_ESt4lessIS0_ESaIS3_EE10_M_insert_IRKS3_NS9_11_Alloc_nodeEEESt17_Rb_tree_iteratorIS3_EPSt18_Rb_tree_node_baseSH_OT_RT0_:
.LFB3920:
	pushq	%rbp
	.seh_pushreg	%rbp
	pushq	%rdi
	.seh_pushreg	%rdi
	pushq	%rsi
	.seh_pushreg	%rsi
	pushq	%rbx
	.seh_pushreg	%rbx
	subq	$40, %rsp
	.seh_stackalloc	40
	.seh_endprologue
	movq	%rcx, %rbx
	movq	%rdx, %rax
	movq	%r8, %rdi
	movq	%r9, %rdx
	testq	%rax, %rax
	je	.L182
	movl	$1, %ebp
.L178:
	movq	112(%rsp), %rcx
	call	_ZNKSt8_Rb_treeI4TileSt4pairIKS0_cESt10_Select1stIS3_ESt4lessIS0_ESaIS3_EE11_Alloc_nodeclIRKS3_EEPSt13_Rb_tree_nodeIS3_EOT_
	movq	%rax, %rsi
	movzbl	%bpl, %ecx
	leaq	8(%rbx), %r9
	movq	%rdi, %r8
	movq	%rax, %rdx
	call	_ZSt29_Rb_tree_insert_and_rebalancebPSt18_Rb_tree_node_baseS0_RS_
	movq	40(%rbx), %rax
	addq	$1, %rax
	movq	%rax, 40(%rbx)
	movq	%rsi, %rax
	addq	$40, %rsp
	popq	%rbx
	popq	%rsi
	popq	%rdi
	popq	%rbp
	ret
.L182:
	leaq	8(%rcx), %rax
	cmpq	%rax, %r8
	je	.L180
	movl	(%r9), %eax
	cmpl	%eax, 32(%r8)
	jg	.L181
	movl	$0, %ebp
	jmp	.L178
.L180:
	movl	$1, %ebp
	jmp	.L178
.L181:
	movl	$1, %ebp
	jmp	.L178
	.seh_endproc
	.section	.text$_ZNSt8_Rb_treeI4TileSt4pairIKS0_cESt10_Select1stIS3_ESt4lessIS0_ESaIS3_EE17_M_insert_unique_IRKS3_NS9_11_Alloc_nodeEEESt17_Rb_tree_iteratorIS3_ESt23_Rb_tree_const_iteratorIS3_EOT_RT0_,"x"
	.linkonce discard
	.align 2
	.globl	_ZNSt8_Rb_treeI4TileSt4pairIKS0_cESt10_Select1stIS3_ESt4lessIS0_ESaIS3_EE17_M_insert_unique_IRKS3_NS9_11_Alloc_nodeEEESt17_Rb_tree_iteratorIS3_ESt23_Rb_tree_const_iteratorIS3_EOT_RT0_
	.def	_ZNSt8_Rb_treeI4TileSt4pairIKS0_cESt10_Select1stIS3_ESt4lessIS0_ESaIS3_EE17_M_insert_unique_IRKS3_NS9_11_Alloc_nodeEEESt17_Rb_tree_iteratorIS3_ESt23_Rb_tree_const_iteratorIS3_EOT_RT0_;	.scl	2;	.type	32;	.endef
	.seh_proc	_ZNSt8_Rb_treeI4TileSt4pairIKS0_cESt10_Select1stIS3_ESt4lessIS0_ESaIS3_EE17_M_insert_unique_IRKS3_NS9_11_Alloc_nodeEEESt17_Rb_tree_iteratorIS3_ESt23_Rb_tree_const_iteratorIS3_EOT_RT0_
_ZNSt8_Rb_treeI4TileSt4pairIKS0_cESt10_Select1stIS3_ESt4lessIS0_ESaIS3_EE17_M_insert_unique_IRKS3_NS9_11_Alloc_nodeEEESt17_Rb_tree_iteratorIS3_ESt23_Rb_tree_const_iteratorIS3_EOT_RT0_:
.LFB3697:
	pushq	%rdi
	.seh_pushreg	%rdi
	pushq	%rsi
	.seh_pushreg	%rsi
	pushq	%rbx
	.seh_pushreg	%rbx
	subq	$64, %rsp
	.seh_stackalloc	64
	.seh_endprologue
	movq	%rcx, %rbx
	movq	%r8, %rsi
	movq	%r9, %rdi
	leaq	48(%rsp), %rcx
	movq	%r8, %r9
	movq	%rdx, %r8
	movq	%rbx, %rdx
	call	_ZNSt8_Rb_treeI4TileSt4pairIKS0_cESt10_Select1stIS3_ESt4lessIS0_ESaIS3_EE29_M_get_insert_hint_unique_posESt23_Rb_tree_const_iteratorIS3_ERS2_
	movq	48(%rsp), %rdx
	movq	56(%rsp), %r8
	testq	%r8, %r8
	je	.L184
	movq	%rdi, 32(%rsp)
	movq	%rsi, %r9
	movq	%rbx, %rcx
	call	_ZNSt8_Rb_treeI4TileSt4pairIKS0_cESt10_Select1stIS3_ESt4lessIS0_ESaIS3_EE10_M_insert_IRKS3_NS9_11_Alloc_nodeEEESt17_Rb_tree_iteratorIS3_EPSt18_Rb_tree_node_baseSH_OT_RT0_
.L185:
	addq	$64, %rsp
	popq	%rbx
	popq	%rsi
	popq	%rdi
	ret
.L184:
	movq	%rdx, %rax
	jmp	.L185
	.seh_endproc
	.section	.text$_ZNSt8_Rb_treeI4TileSt4pairIKS0_cESt10_Select1stIS3_ESt4lessIS0_ESaIS3_EE22_M_insert_range_uniqueIPKS3_EENSt9enable_ifIXsrSt7is_sameIS3_NSt15iterator_traitsIT_E10value_typeEE5valueEvE4typeESG_SG_,"x"
	.linkonce discard
	.align 2
	.globl	_ZNSt8_Rb_treeI4TileSt4pairIKS0_cESt10_Select1stIS3_ESt4lessIS0_ESaIS3_EE22_M_insert_range_uniqueIPKS3_EENSt9enable_ifIXsrSt7is_sameIS3_NSt15iterator_traitsIT_E10value_typeEE5valueEvE4typeESG_SG_
	.def	_ZNSt8_Rb_treeI4TileSt4pairIKS0_cESt10_Select1stIS3_ESt4lessIS0_ESaIS3_EE22_M_insert_range_uniqueIPKS3_EENSt9enable_ifIXsrSt7is_sameIS3_NSt15iterator_traitsIT_E10value_typeEE5valueEvE4typeESG_SG_;	.scl	2;	.type	32;	.endef
	.seh_proc	_ZNSt8_Rb_treeI4TileSt4pairIKS0_cESt10_Select1stIS3_ESt4lessIS0_ESaIS3_EE22_M_insert_range_uniqueIPKS3_EENSt9enable_ifIXsrSt7is_sameIS3_NSt15iterator_traitsIT_E10value_typeEE5valueEvE4typeESG_SG_
_ZNSt8_Rb_treeI4TileSt4pairIKS0_cESt10_Select1stIS3_ESt4lessIS0_ESaIS3_EE22_M_insert_range_uniqueIPKS3_EENSt9enable_ifIXsrSt7is_sameIS3_NSt15iterator_traitsIT_E10value_typeEE5valueEvE4typeESG_SG_:
.LFB3444:
	pushq	%rdi
	.seh_pushreg	%rdi
	pushq	%rsi
	.seh_pushreg	%rsi
	pushq	%rbx
	.seh_pushreg	%rbx
	subq	$48, %rsp
	.seh_stackalloc	48
	.seh_endprologue
	movq	%rcx, %rsi
	movq	%rdx, %rbx
	movq	%r8, %rdi
	movq	%rcx, 40(%rsp)
	jmp	.L187
.L188:
	leaq	8(%rsi), %rdx
	leaq	40(%rsp), %r9
	movq	%rbx, %r8
	movq	%rsi, %rcx
	call	_ZNSt8_Rb_treeI4TileSt4pairIKS0_cESt10_Select1stIS3_ESt4lessIS0_ESaIS3_EE17_M_insert_unique_IRKS3_NS9_11_Alloc_nodeEEESt17_Rb_tree_iteratorIS3_ESt23_Rb_tree_const_iteratorIS3_EOT_RT0_
	addq	$8, %rbx
.L187:
	cmpq	%rdi, %rbx
	jne	.L188
	addq	$48, %rsp
	popq	%rbx
	popq	%rsi
	popq	%rdi
	ret
	.seh_endproc
	.section	.text$_ZNSt3mapI4TilecSt4lessIS0_ESaISt4pairIKS0_cEEEC1ESt16initializer_listIS5_ERKS2_RKS6_,"x"
	.linkonce discard
	.align 2
	.globl	_ZNSt3mapI4TilecSt4lessIS0_ESaISt4pairIKS0_cEEEC1ESt16initializer_listIS5_ERKS2_RKS6_
	.def	_ZNSt3mapI4TilecSt4lessIS0_ESaISt4pairIKS0_cEEEC1ESt16initializer_listIS5_ERKS2_RKS6_;	.scl	2;	.type	32;	.endef
	.seh_proc	_ZNSt3mapI4TilecSt4lessIS0_ESaISt4pairIKS0_cEEEC1ESt16initializer_listIS5_ERKS2_RKS6_
_ZNSt3mapI4TilecSt4lessIS0_ESaISt4pairIKS0_cEEEC1ESt16initializer_listIS5_ERKS2_RKS6_:
.LFB3212:
	pushq	%rsi
	.seh_pushreg	%rsi
	pushq	%rbx
	.seh_pushreg	%rbx
	subq	$40, %rsp
	.seh_stackalloc	40
	.seh_endprologue
	movq	%rcx, %rbx
	movq	(%rdx), %rax
	movq	8(%rdx), %rcx
	movl	$0, 8(%rbx)
	movq	$0, 16(%rbx)
	leaq	8(%rbx), %rdx
	movq	%rdx, 24(%rbx)
	movq	%rdx, 32(%rbx)
	movq	$0, 40(%rbx)
	leaq	(%rax,%rcx,8), %r8
	movq	%rax, %rdx
	movq	%rbx, %rcx
.LEHB0:
	call	_ZNSt8_Rb_treeI4TileSt4pairIKS0_cESt10_Select1stIS3_ESt4lessIS0_ESaIS3_EE22_M_insert_range_uniqueIPKS3_EENSt9enable_ifIXsrSt7is_sameIS3_NSt15iterator_traitsIT_E10value_typeEE5valueEvE4typeESG_SG_
.LEHE0:
	jmp	.L193
.L191:
	movq	%rax, %rsi
	movq	%rbx, %rcx
	call	_ZNSt8_Rb_treeI4TileSt4pairIKS0_cESt10_Select1stIS3_ESt4lessIS0_ESaIS3_EED1Ev
	movq	%rsi, %rcx
.LEHB1:
	call	_Unwind_Resume
	nop
.LEHE1:
.L193:
	addq	$40, %rsp
	popq	%rbx
	popq	%rsi
	ret
	.def	__gxx_personality_seh0;	.scl	2;	.type	32;	.endef
	.seh_handler	__gxx_personality_seh0, @unwind, @except
	.seh_handlerdata
.LLSDA3212:
	.byte	0xff
	.byte	0xff
	.byte	0x1
	.uleb128 .LLSDACSE3212-.LLSDACSB3212
.LLSDACSB3212:
	.uleb128 .LEHB0-.LFB3212
	.uleb128 .LEHE0-.LEHB0
	.uleb128 .L191-.LFB3212
	.uleb128 0
	.uleb128 .LEHB1-.LFB3212
	.uleb128 .LEHE1-.LEHB1
	.uleb128 0
	.uleb128 0
.LLSDACSE3212:
	.section	.text$_ZNSt3mapI4TilecSt4lessIS0_ESaISt4pairIKS0_cEEEC1ESt16initializer_listIS5_ERKS2_RKS6_,"x"
	.linkonce discard
	.seh_endproc
	.section	.text$_ZNSt15__new_allocatorISt13_Rb_tree_nodeISt4pairIKc4TileEEE8allocateEyPKv,"x"
	.linkonce discard
	.align 2
	.globl	_ZNSt15__new_allocatorISt13_Rb_tree_nodeISt4pairIKc4TileEEE8allocateEyPKv
	.def	_ZNSt15__new_allocatorISt13_Rb_tree_nodeISt4pairIKc4TileEEE8allocateEyPKv;	.scl	2;	.type	32;	.endef
	.seh_proc	_ZNSt15__new_allocatorISt13_Rb_tree_nodeISt4pairIKc4TileEEE8allocateEyPKv
_ZNSt15__new_allocatorISt13_Rb_tree_nodeISt4pairIKc4TileEEE8allocateEyPKv:
.LFB4200:
	subq	$40, %rsp
	.seh_stackalloc	40
	.seh_endprologue
	movabsq	$230584300921369395, %rax
	cmpq	%rdx, %rax
	jb	.L197
	leaq	(%rdx,%rdx,4), %rcx
	salq	$3, %rcx
	call	_Znwy
	addq	$40, %rsp
	ret
.L197:
	movabsq	$461168601842738790, %rax
	cmpq	%rdx, %rax
	jnb	.L196
	call	_ZSt28__throw_bad_array_new_lengthv
.L196:
	call	_ZSt17__throw_bad_allocv
	nop
	.seh_endproc
	.section	.text$_ZNKSt8_Rb_treeIcSt4pairIKc4TileESt10_Select1stIS3_ESt4lessIcESaIS3_EE11_Alloc_nodeclIRKS3_EEPSt13_Rb_tree_nodeIS3_EOT_,"x"
	.linkonce discard
	.align 2
	.globl	_ZNKSt8_Rb_treeIcSt4pairIKc4TileESt10_Select1stIS3_ESt4lessIcESaIS3_EE11_Alloc_nodeclIRKS3_EEPSt13_Rb_tree_nodeIS3_EOT_
	.def	_ZNKSt8_Rb_treeIcSt4pairIKc4TileESt10_Select1stIS3_ESt4lessIcESaIS3_EE11_Alloc_nodeclIRKS3_EEPSt13_Rb_tree_nodeIS3_EOT_;	.scl	2;	.type	32;	.endef
	.seh_proc	_ZNKSt8_Rb_treeIcSt4pairIKc4TileESt10_Select1stIS3_ESt4lessIcESaIS3_EE11_Alloc_nodeclIRKS3_EEPSt13_Rb_tree_nodeIS3_EOT_
_ZNKSt8_Rb_treeIcSt4pairIKc4TileESt10_Select1stIS3_ESt4lessIcESaIS3_EE11_Alloc_nodeclIRKS3_EEPSt13_Rb_tree_nodeIS3_EOT_:
.LFB4073:
	pushq	%rbx
	.seh_pushreg	%rbx
	subq	$32, %rsp
	.seh_stackalloc	32
	.seh_endprologue
	movq	%rdx, %rbx
	movq	(%rcx), %rcx
	movl	$0, %r8d
	movl	$1, %edx
	call	_ZNSt15__new_allocatorISt13_Rb_tree_nodeISt4pairIKc4TileEEE8allocateEyPKv
	movq	(%rbx), %rdx
	movq	%rdx, 32(%rax)
	addq	$32, %rsp
	popq	%rbx
	ret
	.seh_endproc
	.section	.text$_ZNSt8_Rb_treeIcSt4pairIKc4TileESt10_Select1stIS3_ESt4lessIcESaIS3_EE10_M_insert_IRKS3_NS9_11_Alloc_nodeEEESt17_Rb_tree_iteratorIS3_EPSt18_Rb_tree_node_baseSH_OT_RT0_,"x"
	.linkonce discard
	.align 2
	.globl	_ZNSt8_Rb_treeIcSt4pairIKc4TileESt10_Select1stIS3_ESt4lessIcESaIS3_EE10_M_insert_IRKS3_NS9_11_Alloc_nodeEEESt17_Rb_tree_iteratorIS3_EPSt18_Rb_tree_node_baseSH_OT_RT0_
	.def	_ZNSt8_Rb_treeIcSt4pairIKc4TileESt10_Select1stIS3_ESt4lessIcESaIS3_EE10_M_insert_IRKS3_NS9_11_Alloc_nodeEEESt17_Rb_tree_iteratorIS3_EPSt18_Rb_tree_node_baseSH_OT_RT0_;	.scl	2;	.type	32;	.endef
	.seh_proc	_ZNSt8_Rb_treeIcSt4pairIKc4TileESt10_Select1stIS3_ESt4lessIcESaIS3_EE10_M_insert_IRKS3_NS9_11_Alloc_nodeEEESt17_Rb_tree_iteratorIS3_EPSt18_Rb_tree_node_baseSH_OT_RT0_
_ZNSt8_Rb_treeIcSt4pairIKc4TileESt10_Select1stIS3_ESt4lessIcESaIS3_EE10_M_insert_IRKS3_NS9_11_Alloc_nodeEEESt17_Rb_tree_iteratorIS3_EPSt18_Rb_tree_node_baseSH_OT_RT0_:
.LFB3936:
	pushq	%rbp
	.seh_pushreg	%rbp
	pushq	%rdi
	.seh_pushreg	%rdi
	pushq	%rsi
	.seh_pushreg	%rsi
	pushq	%rbx
	.seh_pushreg	%rbx
	subq	$40, %rsp
	.seh_stackalloc	40
	.seh_endprologue
	movq	%rcx, %rbx
	movq	%rdx, %rax
	movq	%r8, %rdi
	movq	%r9, %rdx
	testq	%rax, %rax
	je	.L204
	movl	$1, %ebp
.L200:
	movq	112(%rsp), %rcx
	call	_ZNKSt8_Rb_treeIcSt4pairIKc4TileESt10_Select1stIS3_ESt4lessIcESaIS3_EE11_Alloc_nodeclIRKS3_EEPSt13_Rb_tree_nodeIS3_EOT_
	movq	%rax, %rsi
	movzbl	%bpl, %ecx
	leaq	8(%rbx), %r9
	movq	%rdi, %r8
	movq	%rax, %rdx
	call	_ZSt29_Rb_tree_insert_and_rebalancebPSt18_Rb_tree_node_baseS0_RS_
	movq	40(%rbx), %rax
	addq	$1, %rax
	movq	%rax, 40(%rbx)
	movq	%rsi, %rax
	addq	$40, %rsp
	popq	%rbx
	popq	%rsi
	popq	%rdi
	popq	%rbp
	ret
.L204:
	leaq	8(%rcx), %rax
	cmpq	%rax, %r8
	je	.L202
	movzbl	(%r9), %eax
	cmpb	%al, 32(%r8)
	jg	.L203
	movl	$0, %ebp
	jmp	.L200
.L202:
	movl	$1, %ebp
	jmp	.L200
.L203:
	movl	$1, %ebp
	jmp	.L200
	.seh_endproc
	.section	.text$_ZNSt8_Rb_treeIcSt4pairIKc4TileESt10_Select1stIS3_ESt4lessIcESaIS3_EE17_M_insert_unique_IRKS3_NS9_11_Alloc_nodeEEESt17_Rb_tree_iteratorIS3_ESt23_Rb_tree_const_iteratorIS3_EOT_RT0_,"x"
	.linkonce discard
	.align 2
	.globl	_ZNSt8_Rb_treeIcSt4pairIKc4TileESt10_Select1stIS3_ESt4lessIcESaIS3_EE17_M_insert_unique_IRKS3_NS9_11_Alloc_nodeEEESt17_Rb_tree_iteratorIS3_ESt23_Rb_tree_const_iteratorIS3_EOT_RT0_
	.def	_ZNSt8_Rb_treeIcSt4pairIKc4TileESt10_Select1stIS3_ESt4lessIcESaIS3_EE17_M_insert_unique_IRKS3_NS9_11_Alloc_nodeEEESt17_Rb_tree_iteratorIS3_ESt23_Rb_tree_const_iteratorIS3_EOT_RT0_;	.scl	2;	.type	32;	.endef
	.seh_proc	_ZNSt8_Rb_treeIcSt4pairIKc4TileESt10_Select1stIS3_ESt4lessIcESaIS3_EE17_M_insert_unique_IRKS3_NS9_11_Alloc_nodeEEESt17_Rb_tree_iteratorIS3_ESt23_Rb_tree_const_iteratorIS3_EOT_RT0_
_ZNSt8_Rb_treeIcSt4pairIKc4TileESt10_Select1stIS3_ESt4lessIcESaIS3_EE17_M_insert_unique_IRKS3_NS9_11_Alloc_nodeEEESt17_Rb_tree_iteratorIS3_ESt23_Rb_tree_const_iteratorIS3_EOT_RT0_:
.LFB3718:
	pushq	%rdi
	.seh_pushreg	%rdi
	pushq	%rsi
	.seh_pushreg	%rsi
	pushq	%rbx
	.seh_pushreg	%rbx
	subq	$64, %rsp
	.seh_stackalloc	64
	.seh_endprologue
	movq	%rcx, %rbx
	movq	%r8, %rsi
	movq	%r9, %rdi
	leaq	48(%rsp), %rcx
	movq	%r8, %r9
	movq	%rdx, %r8
	movq	%rbx, %rdx
	call	_ZNSt8_Rb_treeIcSt4pairIKc4TileESt10_Select1stIS3_ESt4lessIcESaIS3_EE29_M_get_insert_hint_unique_posESt23_Rb_tree_const_iteratorIS3_ERS1_
	movq	48(%rsp), %rdx
	movq	56(%rsp), %r8
	testq	%r8, %r8
	je	.L206
	movq	%rdi, 32(%rsp)
	movq	%rsi, %r9
	movq	%rbx, %rcx
	call	_ZNSt8_Rb_treeIcSt4pairIKc4TileESt10_Select1stIS3_ESt4lessIcESaIS3_EE10_M_insert_IRKS3_NS9_11_Alloc_nodeEEESt17_Rb_tree_iteratorIS3_EPSt18_Rb_tree_node_baseSH_OT_RT0_
.L207:
	addq	$64, %rsp
	popq	%rbx
	popq	%rsi
	popq	%rdi
	ret
.L206:
	movq	%rdx, %rax
	jmp	.L207
	.seh_endproc
	.section	.text$_ZNSt8_Rb_treeIcSt4pairIKc4TileESt10_Select1stIS3_ESt4lessIcESaIS3_EE22_M_insert_range_uniqueIPKS3_EENSt9enable_ifIXsrSt7is_sameIS3_NSt15iterator_traitsIT_E10value_typeEE5valueEvE4typeESG_SG_,"x"
	.linkonce discard
	.align 2
	.globl	_ZNSt8_Rb_treeIcSt4pairIKc4TileESt10_Select1stIS3_ESt4lessIcESaIS3_EE22_M_insert_range_uniqueIPKS3_EENSt9enable_ifIXsrSt7is_sameIS3_NSt15iterator_traitsIT_E10value_typeEE5valueEvE4typeESG_SG_
	.def	_ZNSt8_Rb_treeIcSt4pairIKc4TileESt10_Select1stIS3_ESt4lessIcESaIS3_EE22_M_insert_range_uniqueIPKS3_EENSt9enable_ifIXsrSt7is_sameIS3_NSt15iterator_traitsIT_E10value_typeEE5valueEvE4typeESG_SG_;	.scl	2;	.type	32;	.endef
	.seh_proc	_ZNSt8_Rb_treeIcSt4pairIKc4TileESt10_Select1stIS3_ESt4lessIcESaIS3_EE22_M_insert_range_uniqueIPKS3_EENSt9enable_ifIXsrSt7is_sameIS3_NSt15iterator_traitsIT_E10value_typeEE5valueEvE4typeESG_SG_
_ZNSt8_Rb_treeIcSt4pairIKc4TileESt10_Select1stIS3_ESt4lessIcESaIS3_EE22_M_insert_range_uniqueIPKS3_EENSt9enable_ifIXsrSt7is_sameIS3_NSt15iterator_traitsIT_E10value_typeEE5valueEvE4typeESG_SG_:
.LFB3463:
	pushq	%rdi
	.seh_pushreg	%rdi
	pushq	%rsi
	.seh_pushreg	%rsi
	pushq	%rbx
	.seh_pushreg	%rbx
	subq	$48, %rsp
	.seh_stackalloc	48
	.seh_endprologue
	movq	%rcx, %rsi
	movq	%rdx, %rbx
	movq	%r8, %rdi
	movq	%rcx, 40(%rsp)
	jmp	.L209
.L210:
	leaq	8(%rsi), %rdx
	leaq	40(%rsp), %r9
	movq	%rbx, %r8
	movq	%rsi, %rcx
	call	_ZNSt8_Rb_treeIcSt4pairIKc4TileESt10_Select1stIS3_ESt4lessIcESaIS3_EE17_M_insert_unique_IRKS3_NS9_11_Alloc_nodeEEESt17_Rb_tree_iteratorIS3_ESt23_Rb_tree_const_iteratorIS3_EOT_RT0_
	addq	$8, %rbx
.L209:
	cmpq	%rdi, %rbx
	jne	.L210
	addq	$48, %rsp
	popq	%rbx
	popq	%rsi
	popq	%rdi
	ret
	.seh_endproc
	.section	.text$_ZNSt3mapIc4TileSt4lessIcESaISt4pairIKcS0_EEEC1ESt16initializer_listIS5_ERKS2_RKS6_,"x"
	.linkonce discard
	.align 2
	.globl	_ZNSt3mapIc4TileSt4lessIcESaISt4pairIKcS0_EEEC1ESt16initializer_listIS5_ERKS2_RKS6_
	.def	_ZNSt3mapIc4TileSt4lessIcESaISt4pairIKcS0_EEEC1ESt16initializer_listIS5_ERKS2_RKS6_;	.scl	2;	.type	32;	.endef
	.seh_proc	_ZNSt3mapIc4TileSt4lessIcESaISt4pairIKcS0_EEEC1ESt16initializer_listIS5_ERKS2_RKS6_
_ZNSt3mapIc4TileSt4lessIcESaISt4pairIKcS0_EEEC1ESt16initializer_listIS5_ERKS2_RKS6_:
.LFB3229:
	pushq	%rsi
	.seh_pushreg	%rsi
	pushq	%rbx
	.seh_pushreg	%rbx
	subq	$40, %rsp
	.seh_stackalloc	40
	.seh_endprologue
	movq	%rcx, %rbx
	movq	(%rdx), %rax
	movq	8(%rdx), %rcx
	movl	$0, 8(%rbx)
	movq	$0, 16(%rbx)
	leaq	8(%rbx), %rdx
	movq	%rdx, 24(%rbx)
	movq	%rdx, 32(%rbx)
	movq	$0, 40(%rbx)
	leaq	(%rax,%rcx,8), %r8
	movq	%rax, %rdx
	movq	%rbx, %rcx
.LEHB2:
	call	_ZNSt8_Rb_treeIcSt4pairIKc4TileESt10_Select1stIS3_ESt4lessIcESaIS3_EE22_M_insert_range_uniqueIPKS3_EENSt9enable_ifIXsrSt7is_sameIS3_NSt15iterator_traitsIT_E10value_typeEE5valueEvE4typeESG_SG_
.LEHE2:
	jmp	.L215
.L213:
	movq	%rax, %rsi
	movq	%rbx, %rcx
	call	_ZNSt8_Rb_treeIcSt4pairIKc4TileESt10_Select1stIS3_ESt4lessIcESaIS3_EED1Ev
	movq	%rsi, %rcx
.LEHB3:
	call	_Unwind_Resume
	nop
.LEHE3:
.L215:
	addq	$40, %rsp
	popq	%rbx
	popq	%rsi
	ret
	.seh_handler	__gxx_personality_seh0, @unwind, @except
	.seh_handlerdata
.LLSDA3229:
	.byte	0xff
	.byte	0xff
	.byte	0x1
	.uleb128 .LLSDACSE3229-.LLSDACSB3229
.LLSDACSB3229:
	.uleb128 .LEHB2-.LFB3229
	.uleb128 .LEHE2-.LEHB2
	.uleb128 .L213-.LFB3229
	.uleb128 0
	.uleb128 .LEHB3-.LFB3229
	.uleb128 .LEHE3-.LEHB3
	.uleb128 0
	.uleb128 0
.LLSDACSE3229:
	.section	.text$_ZNSt3mapIc4TileSt4lessIcESaISt4pairIKcS0_EEEC1ESt16initializer_listIS5_ERKS2_RKS6_,"x"
	.linkonce discard
	.seh_endproc
	.section	.text$_ZN10TileHelperC1Ev,"x"
	.linkonce discard
	.align 2
	.globl	_ZN10TileHelperC1Ev
	.def	_ZN10TileHelperC1Ev;	.scl	2;	.type	32;	.endef
	.seh_proc	_ZN10TileHelperC1Ev
_ZN10TileHelperC1Ev:
.LFB2929:
	pushq	%rsi
	.seh_pushreg	%rsi
	pushq	%rbx
	.seh_pushreg	%rbx
	subq	$72, %rsp
	.seh_stackalloc	72
	.seh_endprologue
	movq	%rcx, %rbx
	leaq	C.17.0(%rip), %rax
	movq	%rax, 32(%rsp)
	movq	$13, 40(%rsp)
	leaq	32(%rsp), %rsi
	leaq	61(%rsp), %r9
	leaq	60(%rsp), %r8
	movq	%rsi, %rdx
.LEHB4:
	call	_ZNSt3mapI4TilecSt4lessIS0_ESaISt4pairIKS0_cEEEC1ESt16initializer_listIS5_ERKS2_RKS6_
.LEHE4:
	leaq	C.18.1(%rip), %rax
	movq	%rax, 32(%rsp)
	movq	$13, 40(%rsp)
	leaq	48(%rbx), %rcx
	leaq	63(%rsp), %r9
	leaq	62(%rsp), %r8
	movq	%rsi, %rdx
.LEHB5:
	call	_ZNSt3mapIc4TileSt4lessIcESaISt4pairIKcS0_EEEC1ESt16initializer_listIS5_ERKS2_RKS6_
.LEHE5:
	jmp	.L220
.L218:
	movq	%rax, %rsi
	movq	%rbx, %rcx
	call	_ZNSt8_Rb_treeI4TileSt4pairIKS0_cESt10_Select1stIS3_ESt4lessIS0_ESaIS3_EED1Ev
	movq	%rsi, %rcx
.LEHB6:
	call	_Unwind_Resume
	nop
.LEHE6:
.L220:
	addq	$72, %rsp
	popq	%rbx
	popq	%rsi
	ret
	.seh_handler	__gxx_personality_seh0, @unwind, @except
	.seh_handlerdata
.LLSDA2929:
	.byte	0xff
	.byte	0xff
	.byte	0x1
	.uleb128 .LLSDACSE2929-.LLSDACSB2929
.LLSDACSB2929:
	.uleb128 .LEHB4-.LFB2929
	.uleb128 .LEHE4-.LEHB4
	.uleb128 0
	.uleb128 0
	.uleb128 .LEHB5-.LFB2929
	.uleb128 .LEHE5-.LEHB5
	.uleb128 .L218-.LFB2929
	.uleb128 0
	.uleb128 .LEHB6-.LFB2929
	.uleb128 .LEHE6-.LEHB6
	.uleb128 0
	.uleb128 0
.LLSDACSE2929:
	.section	.text$_ZN10TileHelperC1Ev,"x"
	.linkonce discard
	.seh_endproc
	.section	.text$_ZNSt5tupleIJRKcEEC1EOS2_,"x"
	.linkonce discard
	.align 2
	.globl	_ZNSt5tupleIJRKcEEC1EOS2_
	.def	_ZNSt5tupleIJRKcEEC1EOS2_;	.scl	2;	.type	32;	.endef
	.seh_proc	_ZNSt5tupleIJRKcEEC1EOS2_
_ZNSt5tupleIJRKcEEC1EOS2_:
.LFB4204:
	.seh_endprologue
	movq	(%rdx), %rax
	movq	%rax, (%rcx)
	ret
	.seh_endproc
	.section	.text$_ZSt12__niter_baseIPKcSt6vectorIcSaIcEEET_N9__gnu_cxx17__normal_iteratorIS5_T0_EE,"x"
	.linkonce discard
	.globl	_ZSt12__niter_baseIPKcSt6vectorIcSaIcEEET_N9__gnu_cxx17__normal_iteratorIS5_T0_EE
	.def	_ZSt12__niter_baseIPKcSt6vectorIcSaIcEEET_N9__gnu_cxx17__normal_iteratorIS5_T0_EE;	.scl	2;	.type	32;	.endef
	.seh_proc	_ZSt12__niter_baseIPKcSt6vectorIcSaIcEEET_N9__gnu_cxx17__normal_iteratorIS5_T0_EE
_ZSt12__niter_baseIPKcSt6vectorIcSaIcEEET_N9__gnu_cxx17__normal_iteratorIS5_T0_EE:
.LFB4209:
	.seh_endprologue
	movq	%rcx, %rax
	ret
	.seh_endproc
	.section	.text$_ZNSt4pairIKc4TileEC1IJRS0_EJEEESt21piecewise_construct_tSt5tupleIJDpT_EES6_IJDpT0_EE,"x"
	.linkonce discard
	.align 2
	.globl	_ZNSt4pairIKc4TileEC1IJRS0_EJEEESt21piecewise_construct_tSt5tupleIJDpT_EES6_IJDpT0_EE
	.def	_ZNSt4pairIKc4TileEC1IJRS0_EJEEESt21piecewise_construct_tSt5tupleIJDpT_EES6_IJDpT0_EE;	.scl	2;	.type	32;	.endef
	.seh_proc	_ZNSt4pairIKc4TileEC1IJRS0_EJEEESt21piecewise_construct_tSt5tupleIJDpT_EES6_IJDpT0_EE
_ZNSt4pairIKc4TileEC1IJRS0_EJEEESt21piecewise_construct_tSt5tupleIJDpT_EES6_IJDpT0_EE:
.LFB4237:
	.seh_endprologue
	movq	(%r8), %rax
	movzbl	(%rax), %eax
	movb	%al, (%rcx)
	movl	$0, 4(%rcx)
	ret
	.seh_endproc
	.section	.text$_ZNSt8_Rb_treeIcSt4pairIKc4TileESt10_Select1stIS3_ESt4lessIcESaIS3_EE14_M_create_nodeIJRKSt21piecewise_construct_tSt5tupleIJRS1_EESE_IJEEEEEPSt13_Rb_tree_nodeIS3_EDpOT_,"x"
	.linkonce discard
	.align 2
	.globl	_ZNSt8_Rb_treeIcSt4pairIKc4TileESt10_Select1stIS3_ESt4lessIcESaIS3_EE14_M_create_nodeIJRKSt21piecewise_construct_tSt5tupleIJRS1_EESE_IJEEEEEPSt13_Rb_tree_nodeIS3_EDpOT_
	.def	_ZNSt8_Rb_treeIcSt4pairIKc4TileESt10_Select1stIS3_ESt4lessIcESaIS3_EE14_M_create_nodeIJRKSt21piecewise_construct_tSt5tupleIJRS1_EESE_IJEEEEEPSt13_Rb_tree_nodeIS3_EDpOT_;	.scl	2;	.type	32;	.endef
	.seh_proc	_ZNSt8_Rb_treeIcSt4pairIKc4TileESt10_Select1stIS3_ESt4lessIcESaIS3_EE14_M_create_nodeIJRKSt21piecewise_construct_tSt5tupleIJRS1_EESE_IJEEEEEPSt13_Rb_tree_nodeIS3_EDpOT_
_ZNSt8_Rb_treeIcSt4pairIKc4TileESt10_Select1stIS3_ESt4lessIcESaIS3_EE14_M_create_nodeIJRKSt21piecewise_construct_tSt5tupleIJRS1_EESE_IJEEEEEPSt13_Rb_tree_nodeIS3_EDpOT_:
.LFB3972:
	pushq	%rbp
	.seh_pushreg	%rbp
	pushq	%rdi
	.seh_pushreg	%rdi
	pushq	%rsi
	.seh_pushreg	%rsi
	pushq	%rbx
	.seh_pushreg	%rbx
	subq	$56, %rsp
	.seh_stackalloc	56
	.seh_endprologue
	movq	%r8, %rsi
	movl	$0, %r8d
	movl	$1, %edx
	call	_ZNSt15__new_allocatorISt13_Rb_tree_nodeISt4pairIKc4TileEEE8allocateEyPKv
	movq	%rax, %rbx
	leaq	32(%rax), %rbp
	leaq	40(%rsp), %rdi
	movq	%rsi, %rdx
	movq	%rdi, %rcx
	call	_ZNSt5tupleIJRKcEEC1EOS2_
	movl	$0, %r9d
	movq	%rdi, %r8
	movl	$0, %edx
	movq	%rbp, %rcx
	call	_ZNSt4pairIKc4TileEC1IJRS0_EJEEESt21piecewise_construct_tSt5tupleIJDpT_EES6_IJDpT0_EE
	movq	%rbx, %rax
	addq	$56, %rsp
	popq	%rbx
	popq	%rsi
	popq	%rdi
	popq	%rbp
	ret
	.seh_endproc
	.section	.text$_ZNSt8_Rb_treeIcSt4pairIKc4TileESt10_Select1stIS3_ESt4lessIcESaIS3_EE22_M_emplace_hint_uniqueIJRKSt21piecewise_construct_tSt5tupleIJRS1_EESE_IJEEEEESt17_Rb_tree_iteratorIS3_ESt23_Rb_tree_const_iteratorIS3_EDpOT_,"x"
	.linkonce discard
	.align 2
	.globl	_ZNSt8_Rb_treeIcSt4pairIKc4TileESt10_Select1stIS3_ESt4lessIcESaIS3_EE22_M_emplace_hint_uniqueIJRKSt21piecewise_construct_tSt5tupleIJRS1_EESE_IJEEEEESt17_Rb_tree_iteratorIS3_ESt23_Rb_tree_const_iteratorIS3_EDpOT_
	.def	_ZNSt8_Rb_treeIcSt4pairIKc4TileESt10_Select1stIS3_ESt4lessIcESaIS3_EE22_M_emplace_hint_uniqueIJRKSt21piecewise_construct_tSt5tupleIJRS1_EESE_IJEEEEESt17_Rb_tree_iteratorIS3_ESt23_Rb_tree_const_iteratorIS3_EDpOT_;	.scl	2;	.type	32;	.endef
	.seh_proc	_ZNSt8_Rb_treeIcSt4pairIKc4TileESt10_Select1stIS3_ESt4lessIcESaIS3_EE22_M_emplace_hint_uniqueIJRKSt21piecewise_construct_tSt5tupleIJRS1_EESE_IJEEEEESt17_Rb_tree_iteratorIS3_ESt23_Rb_tree_const_iteratorIS3_EDpOT_
_ZNSt8_Rb_treeIcSt4pairIKc4TileESt10_Select1stIS3_ESt4lessIcESaIS3_EE22_M_emplace_hint_uniqueIJRKSt21piecewise_construct_tSt5tupleIJRS1_EESE_IJEEEEESt17_Rb_tree_iteratorIS3_ESt23_Rb_tree_const_iteratorIS3_EDpOT_:
.LFB3499:
	pushq	%rsi
	.seh_pushreg	%rsi
	pushq	%rbx
	.seh_pushreg	%rbx
	subq	$72, %rsp
	.seh_stackalloc	72
	.seh_endprologue
	movq	%rcx, %rbx
	movq	%rdx, %rsi
	movq	%r8, %rdx
	movq	%r9, %r8
	movq	%rcx, 48(%rsp)
	movq	128(%rsp), %r9
	call	_ZNSt8_Rb_treeIcSt4pairIKc4TileESt10_Select1stIS3_ESt4lessIcESaIS3_EE14_M_create_nodeIJRKSt21piecewise_construct_tSt5tupleIJRS1_EESE_IJEEEEEPSt13_Rb_tree_nodeIS3_EDpOT_
	movq	%rax, 56(%rsp)
	leaq	32(%rsp), %rcx
	leaq	32(%rax), %r9
	movq	%rsi, %r8
	movq	%rbx, %rdx
	call	_ZNSt8_Rb_treeIcSt4pairIKc4TileESt10_Select1stIS3_ESt4lessIcESaIS3_EE29_M_get_insert_hint_unique_posESt23_Rb_tree_const_iteratorIS3_ERS1_
	movq	32(%rsp), %rbx
	movq	40(%rsp), %rax
	testq	%rax, %rax
	je	.L227
	leaq	32(%rsp), %rdx
	leaq	48(%rsp), %rcx
	call	_ZNSt8_Rb_treeIcSt4pairIKc4TileESt10_Select1stIS3_ESt4lessIcESaIS3_EE10_Auto_node9_M_insertES0_IPSt18_Rb_tree_node_baseSC_E
	movq	%rax, %rbx
.L227:
	leaq	48(%rsp), %rcx
	call	_ZNSt8_Rb_treeIcSt4pairIKc4TileESt10_Select1stIS3_ESt4lessIcESaIS3_EE10_Auto_nodeD1Ev
	movq	%rbx, %rax
	addq	$72, %rsp
	popq	%rbx
	popq	%rsi
	ret
	.seh_endproc
	.section	.text$_ZNSt3mapIc4TileSt4lessIcESaISt4pairIKcS0_EEEixERS4_,"x"
	.linkonce discard
	.align 2
	.globl	_ZNSt3mapIc4TileSt4lessIcESaISt4pairIKcS0_EEEixERS4_
	.def	_ZNSt3mapIc4TileSt4lessIcESaISt4pairIKcS0_EEEixERS4_;	.scl	2;	.type	32;	.endef
	.seh_proc	_ZNSt3mapIc4TileSt4lessIcESaISt4pairIKcS0_EEEixERS4_
_ZNSt3mapIc4TileSt4lessIcESaISt4pairIKcS0_EEEixERS4_:
.LFB3243:
	pushq	%rsi
	.seh_pushreg	%rsi
	pushq	%rbx
	.seh_pushreg	%rbx
	subq	$72, %rsp
	.seh_stackalloc	72
	.seh_endprologue
	movq	%rcx, %rbx
	movq	%rdx, %rsi
	call	_ZNSt3mapIc4TileSt4lessIcESaISt4pairIKcS0_EEE11lower_boundERS4_
	leaq	8(%rbx), %rdx
	movq	%rax, %rcx
	cmpq	%rax, %rdx
	je	.L229
	movzbl	32(%rax), %edx
	cmpb	%dl, (%rsi)
	jge	.L231
.L229:
	movq	%rsi, 56(%rsp)
	leaq	55(%rsp), %rax
	movq	%rax, 32(%rsp)
	leaq	56(%rsp), %r9
	leaq	_ZSt19piecewise_construct(%rip), %r8
	movq	%rcx, %rdx
	movq	%rbx, %rcx
	call	_ZNSt8_Rb_treeIcSt4pairIKc4TileESt10_Select1stIS3_ESt4lessIcESaIS3_EE22_M_emplace_hint_uniqueIJRKSt21piecewise_construct_tSt5tupleIJRS1_EESE_IJEEEEESt17_Rb_tree_iteratorIS3_ESt23_Rb_tree_const_iteratorIS3_EDpOT_
.L231:
	addq	$36, %rax
	addq	$72, %rsp
	popq	%rbx
	popq	%rsi
	ret
	.seh_endproc
	.section	.text$_ZNSt6vectorI4TileSaIS0_EEC1EOS2_,"x"
	.linkonce discard
	.align 2
	.globl	_ZNSt6vectorI4TileSaIS0_EEC1EOS2_
	.def	_ZNSt6vectorI4TileSaIS0_EEC1EOS2_;	.scl	2;	.type	32;	.endef
	.seh_proc	_ZNSt6vectorI4TileSaIS0_EEC1EOS2_
_ZNSt6vectorI4TileSaIS0_EEC1EOS2_:
.LFB4253:
	.seh_endprologue
	movq	(%rdx), %rax
	movq	%rax, (%rcx)
	movq	8(%rdx), %rax
	movq	%rax, 8(%rcx)
	movq	16(%rdx), %rax
	movq	%rax, 16(%rcx)
	movq	$0, 16(%rdx)
	movq	$0, 8(%rdx)
	movq	$0, (%rdx)
	ret
	.seh_endproc
	.section	.text$_ZSt14__relocate_a_1IPSt6vectorI4TileSaIS1_EES4_SaIS3_EET0_T_S7_S6_RT1_,"x"
	.linkonce discard
	.globl	_ZSt14__relocate_a_1IPSt6vectorI4TileSaIS1_EES4_SaIS3_EET0_T_S7_S6_RT1_
	.def	_ZSt14__relocate_a_1IPSt6vectorI4TileSaIS1_EES4_SaIS3_EET0_T_S7_S6_RT1_;	.scl	2;	.type	32;	.endef
	.seh_proc	_ZSt14__relocate_a_1IPSt6vectorI4TileSaIS1_EES4_SaIS3_EET0_T_S7_S6_RT1_
_ZSt14__relocate_a_1IPSt6vectorI4TileSaIS1_EES4_SaIS3_EET0_T_S7_S6_RT1_:
.LFB4130:
	pushq	%rdi
	.seh_pushreg	%rdi
	pushq	%rsi
	.seh_pushreg	%rsi
	pushq	%rbx
	.seh_pushreg	%rbx
	subq	$32, %rsp
	.seh_stackalloc	32
	.seh_endprologue
	movq	%rcx, %rbx
	movq	%rdx, %rdi
	movq	%r8, %rsi
	jmp	.L234
.L235:
	movq	%rbx, %rdx
	movq	%rsi, %rcx
	call	_ZNSt6vectorI4TileSaIS0_EEC1EOS2_
	movq	%rbx, %rcx
	call	_ZNSt6vectorI4TileSaIS0_EED1Ev
	addq	$24, %rbx
	addq	$24, %rsi
.L234:
	cmpq	%rdi, %rbx
	jne	.L235
	movq	%rsi, %rax
	addq	$32, %rsp
	popq	%rbx
	popq	%rsi
	popq	%rdi
	ret
	.seh_endproc
	.section	.text$_ZNSt11__copy_moveILb0ELb1ESt26random_access_iterator_tagE8__copy_mIKccEEPT0_PT_S7_S5_,"x"
	.linkonce discard
	.globl	_ZNSt11__copy_moveILb0ELb1ESt26random_access_iterator_tagE8__copy_mIKccEEPT0_PT_S7_S5_
	.def	_ZNSt11__copy_moveILb0ELb1ESt26random_access_iterator_tagE8__copy_mIKccEEPT0_PT_S7_S5_;	.scl	2;	.type	32;	.endef
	.seh_proc	_ZNSt11__copy_moveILb0ELb1ESt26random_access_iterator_tagE8__copy_mIKccEEPT0_PT_S7_S5_
_ZNSt11__copy_moveILb0ELb1ESt26random_access_iterator_tagE8__copy_mIKccEEPT0_PT_S7_S5_:
.LFB4262:
	pushq	%rsi
	.seh_pushreg	%rsi
	pushq	%rbx
	.seh_pushreg	%rbx
	subq	$40, %rsp
	.seh_stackalloc	40
	.seh_endprologue
	movq	%r8, %rbx
	subq	%rcx, %rdx
	movq	%rdx, %rsi
	cmpq	$1, %rdx
	jle	.L237
	movq	%rdx, %r8
	movq	%rcx, %rdx
	movq	%rbx, %rcx
	call	memmove
.L238:
	leaq	(%rbx,%rsi), %rax
	addq	$40, %rsp
	popq	%rbx
	popq	%rsi
	ret
.L237:
	jne	.L238
	movzbl	(%rcx), %eax
	movb	%al, (%r8)
	jmp	.L238
	.seh_endproc
	.section .rdata,"dr"
	.align 8
.LC1:
	.ascii "cannot create std::vector larger than max_size()\0"
	.section	.text$_ZNSt6vectorIcSaIcEE19_M_range_initializeIPKcEEvT_S5_St20forward_iterator_tag,"x"
	.linkonce discard
	.align 2
	.globl	_ZNSt6vectorIcSaIcEE19_M_range_initializeIPKcEEvT_S5_St20forward_iterator_tag
	.def	_ZNSt6vectorIcSaIcEE19_M_range_initializeIPKcEEvT_S5_St20forward_iterator_tag;	.scl	2;	.type	32;	.endef
	.seh_proc	_ZNSt6vectorIcSaIcEE19_M_range_initializeIPKcEEvT_S5_St20forward_iterator_tag
_ZNSt6vectorIcSaIcEE19_M_range_initializeIPKcEEvT_S5_St20forward_iterator_tag:
.LFB3524:
	pushq	%rbp
	.seh_pushreg	%rbp
	pushq	%rdi
	.seh_pushreg	%rdi
	pushq	%rsi
	.seh_pushreg	%rsi
	pushq	%rbx
	.seh_pushreg	%rbx
	subq	$40, %rsp
	.seh_stackalloc	40
	.seh_endprologue
	movq	%rcx, %rbx
	movq	%rdx, %rsi
	movq	%r8, %rdi
	movq	%r8, %rbp
	subq	%rdx, %rbp
	js	.L243
	testq	%rbp, %rbp
	je	.L242
	movl	$0, %r8d
	movq	%rbp, %rdx
	call	_ZNSt15__new_allocatorIcE8allocateEyPKv
	movq	%rax, %r8
.L241:
	movq	%r8, (%rbx)
	addq	%r8, %rbp
	movq	%rbp, 16(%rbx)
	movq	%rdi, %rdx
	movq	%rsi, %rcx
	call	_ZNSt11__copy_moveILb0ELb1ESt26random_access_iterator_tagE8__copy_mIKccEEPT0_PT_S7_S5_
	movq	%rax, 8(%rbx)
	addq	$40, %rsp
	popq	%rbx
	popq	%rsi
	popq	%rdi
	popq	%rbp
	ret
.L243:
	leaq	.LC1(%rip), %rcx
	call	_ZSt20__throw_length_errorPKc
.L242:
	movl	$0, %r8d
	jmp	.L241
	.seh_endproc
	.section	.text$_ZNSt6vectorIcSaIcEEC1ESt16initializer_listIcERKS0_,"x"
	.linkonce discard
	.align 2
	.globl	_ZNSt6vectorIcSaIcEEC1ESt16initializer_listIcERKS0_
	.def	_ZNSt6vectorIcSaIcEEC1ESt16initializer_listIcERKS0_;	.scl	2;	.type	32;	.endef
	.seh_proc	_ZNSt6vectorIcSaIcEEC1ESt16initializer_listIcERKS0_
_ZNSt6vectorIcSaIcEEC1ESt16initializer_listIcERKS0_:
.LFB3268:
	pushq	%rsi
	.seh_pushreg	%rsi
	pushq	%rbx
	.seh_pushreg	%rbx
	subq	$40, %rsp
	.seh_stackalloc	40
	.seh_endprologue
	movq	%rcx, %rbx
	movq	(%rdx), %rax
	movq	$0, (%rcx)
	movq	$0, 8(%rcx)
	movq	$0, 16(%rcx)
	movl	$0, %r9d
	movq	%rax, %r8
	addq	8(%rdx), %r8
	movq	%rax, %rdx
.LEHB7:
	call	_ZNSt6vectorIcSaIcEE19_M_range_initializeIPKcEEvT_S5_St20forward_iterator_tag
.LEHE7:
	jmp	.L248
.L246:
	movq	%rax, %rsi
	movq	%rbx, %rcx
	call	_ZNSt12_Vector_baseIcSaIcEED2Ev
	movq	%rsi, %rcx
.LEHB8:
	call	_Unwind_Resume
	nop
.LEHE8:
.L248:
	addq	$40, %rsp
	popq	%rbx
	popq	%rsi
	ret
	.seh_handler	__gxx_personality_seh0, @unwind, @except
	.seh_handlerdata
.LLSDA3268:
	.byte	0xff
	.byte	0xff
	.byte	0x1
	.uleb128 .LLSDACSE3268-.LLSDACSB3268
.LLSDACSB3268:
	.uleb128 .LEHB7-.LFB3268
	.uleb128 .LEHE7-.LEHB7
	.uleb128 .L246-.LFB3268
	.uleb128 0
	.uleb128 .LEHB8-.LFB3268
	.uleb128 .LEHE8-.LEHB8
	.uleb128 0
	.uleb128 0
.LLSDACSE3268:
	.section	.text$_ZNSt6vectorIcSaIcEEC1ESt16initializer_listIcERKS0_,"x"
	.linkonce discard
	.seh_endproc
	.section	.text$_ZSt13__copy_move_aILb0EN9__gnu_cxx17__normal_iteratorIPKcSt6vectorIcSaIcEEEEPcET1_T0_SA_S9_,"x"
	.linkonce discard
	.globl	_ZSt13__copy_move_aILb0EN9__gnu_cxx17__normal_iteratorIPKcSt6vectorIcSaIcEEEEPcET1_T0_SA_S9_
	.def	_ZSt13__copy_move_aILb0EN9__gnu_cxx17__normal_iteratorIPKcSt6vectorIcSaIcEEEEPcET1_T0_SA_S9_;	.scl	2;	.type	32;	.endef
	.seh_proc	_ZSt13__copy_move_aILb0EN9__gnu_cxx17__normal_iteratorIPKcSt6vectorIcSaIcEEEEPcET1_T0_SA_S9_
_ZSt13__copy_move_aILb0EN9__gnu_cxx17__normal_iteratorIPKcSt6vectorIcSaIcEEEEPcET1_T0_SA_S9_:
.LFB4167:
	pushq	%rdi
	.seh_pushreg	%rdi
	pushq	%rsi
	.seh_pushreg	%rsi
	pushq	%rbx
	.seh_pushreg	%rbx
	subq	$32, %rsp
	.seh_stackalloc	32
	.seh_endprologue
	movq	%rcx, %rdi
	movq	%rdx, %rcx
	movq	%r8, %rsi
	call	_ZSt12__niter_baseIPKcSt6vectorIcSaIcEEET_N9__gnu_cxx17__normal_iteratorIS5_T0_EE
	movq	%rax, %rbx
	movq	%rdi, %rcx
	call	_ZSt12__niter_baseIPKcSt6vectorIcSaIcEEET_N9__gnu_cxx17__normal_iteratorIS5_T0_EE
	movq	%rax, %rcx
	movq	%rsi, %r8
	movq	%rbx, %rdx
	call	_ZNSt11__copy_moveILb0ELb1ESt26random_access_iterator_tagE8__copy_mIKccEEPT0_PT_S7_S5_
	addq	$32, %rsp
	popq	%rbx
	popq	%rsi
	popq	%rdi
	ret
	.seh_endproc
	.section	.text$_ZSt4copyIN9__gnu_cxx17__normal_iteratorIPKcSt6vectorIcSaIcEEEEPcET0_T_SA_S9_,"x"
	.linkonce discard
	.globl	_ZSt4copyIN9__gnu_cxx17__normal_iteratorIPKcSt6vectorIcSaIcEEEEPcET0_T_SA_S9_
	.def	_ZSt4copyIN9__gnu_cxx17__normal_iteratorIPKcSt6vectorIcSaIcEEEEPcET0_T_SA_S9_;	.scl	2;	.type	32;	.endef
	.seh_proc	_ZSt4copyIN9__gnu_cxx17__normal_iteratorIPKcSt6vectorIcSaIcEEEEPcET0_T_SA_S9_
_ZSt4copyIN9__gnu_cxx17__normal_iteratorIPKcSt6vectorIcSaIcEEEEPcET0_T_SA_S9_:
.LFB4114:
	subq	$40, %rsp
	.seh_stackalloc	40
	.seh_endprologue
	call	_ZSt13__copy_move_aILb0EN9__gnu_cxx17__normal_iteratorIPKcSt6vectorIcSaIcEEEEPcET1_T0_SA_S9_
	addq	$40, %rsp
	ret
	.seh_endproc
	.section	.text$_ZSt18uninitialized_copyIN9__gnu_cxx17__normal_iteratorIPKcSt6vectorIcSaIcEEEEPcET0_T_SA_S9_,"x"
	.linkonce discard
	.globl	_ZSt18uninitialized_copyIN9__gnu_cxx17__normal_iteratorIPKcSt6vectorIcSaIcEEEEPcET0_T_SA_S9_
	.def	_ZSt18uninitialized_copyIN9__gnu_cxx17__normal_iteratorIPKcSt6vectorIcSaIcEEEEPcET0_T_SA_S9_;	.scl	2;	.type	32;	.endef
	.seh_proc	_ZSt18uninitialized_copyIN9__gnu_cxx17__normal_iteratorIPKcSt6vectorIcSaIcEEEEPcET0_T_SA_S9_
_ZSt18uninitialized_copyIN9__gnu_cxx17__normal_iteratorIPKcSt6vectorIcSaIcEEEEPcET0_T_SA_S9_:
.LFB3819:
	subq	$40, %rsp
	.seh_stackalloc	40
	.seh_endprologue
	call	_ZSt4copyIN9__gnu_cxx17__normal_iteratorIPKcSt6vectorIcSaIcEEEEPcET0_T_SA_S9_
	addq	$40, %rsp
	ret
	.seh_endproc
	.section	.text$_ZNSt6vectorIcSaIcEEC1ERKS1_,"x"
	.linkonce discard
	.align 2
	.globl	_ZNSt6vectorIcSaIcEEC1ERKS1_
	.def	_ZNSt6vectorIcSaIcEEC1ERKS1_;	.scl	2;	.type	32;	.endef
	.seh_proc	_ZNSt6vectorIcSaIcEEC1ERKS1_
_ZNSt6vectorIcSaIcEEC1ERKS1_:
.LFB3305:
	pushq	%rsi
	.seh_pushreg	%rsi
	pushq	%rbx
	.seh_pushreg	%rbx
	subq	$40, %rsp
	.seh_stackalloc	40
	.seh_endprologue
	movq	%rcx, %rbx
	movq	%rdx, %rsi
	movq	8(%rdx), %rdx
	subq	(%rsi), %rdx
	movq	$0, (%rcx)
	movq	$0, 8(%rcx)
	movq	$0, 16(%rcx)
	call	_ZNSt12_Vector_baseIcSaIcEE17_M_create_storageEy
	movq	8(%rsi), %rdx
	movq	(%rsi), %rcx
	movq	(%rbx), %r8
	call	_ZSt18uninitialized_copyIN9__gnu_cxx17__normal_iteratorIPKcSt6vectorIcSaIcEEEEPcET0_T_SA_S9_
	movq	%rax, 8(%rbx)
	addq	$40, %rsp
	popq	%rbx
	popq	%rsi
	ret
	.seh_endproc
	.section	.text$_ZSt16__do_uninit_copyIPKSt6vectorIcSaIcEEPS2_ET0_T_S7_S6_,"x"
	.linkonce discard
	.globl	_ZSt16__do_uninit_copyIPKSt6vectorIcSaIcEEPS2_ET0_T_S7_S6_
	.def	_ZSt16__do_uninit_copyIPKSt6vectorIcSaIcEEPS2_ET0_T_S7_S6_;	.scl	2;	.type	32;	.endef
	.seh_proc	_ZSt16__do_uninit_copyIPKSt6vectorIcSaIcEEPS2_ET0_T_S7_S6_
_ZSt16__do_uninit_copyIPKSt6vectorIcSaIcEEPS2_ET0_T_S7_S6_:
.LFB4165:
	pushq	%rbp
	.seh_pushreg	%rbp
	pushq	%rdi
	.seh_pushreg	%rdi
	pushq	%rsi
	.seh_pushreg	%rsi
	pushq	%rbx
	.seh_pushreg	%rbx
	subq	$40, %rsp
	.seh_stackalloc	40
	.seh_endprologue
	movq	%rcx, %rbx
	movq	%rdx, %rdi
	movq	%r8, %rbp
	movq	%r8, %rsi
	jmp	.L254
.L264:
	addq	$24, %rbx
	addq	$24, %rsi
.L254:
	cmpq	%rdi, %rbx
	je	.L263
	movq	%rbx, %rdx
	movq	%rsi, %rcx
.LEHB9:
	call	_ZNSt6vectorIcSaIcEEC1ERKS1_
.LEHE9:
	jmp	.L264
.L260:
	movq	%rax, %rcx
	call	__cxa_begin_catch
.L257:
	cmpq	%rbp, %rsi
	jne	.L258
.LEHB10:
	call	__cxa_rethrow
.LEHE10:
.L261:
	movq	%rax, %rbx
	call	__cxa_end_catch
	movq	%rbx, %rcx
.LEHB11:
	call	_Unwind_Resume
.LEHE11:
.L258:
	movq	%rbp, %rcx
	call	_ZNSt6vectorIcSaIcEED1Ev
	addq	$24, %rbp
	jmp	.L257
.L263:
	movq	%rsi, %rax
	addq	$40, %rsp
	popq	%rbx
	popq	%rsi
	popq	%rdi
	popq	%rbp
	ret
	.seh_handler	__gxx_personality_seh0, @unwind, @except
	.seh_handlerdata
	.align 4
.LLSDA4165:
	.byte	0xff
	.byte	0x9b
	.uleb128 .LLSDATT4165-.LLSDATTD4165
.LLSDATTD4165:
	.byte	0x1
	.uleb128 .LLSDACSE4165-.LLSDACSB4165
.LLSDACSB4165:
	.uleb128 .LEHB9-.LFB4165
	.uleb128 .LEHE9-.LEHB9
	.uleb128 .L260-.LFB4165
	.uleb128 0x1
	.uleb128 .LEHB10-.LFB4165
	.uleb128 .LEHE10-.LEHB10
	.uleb128 .L261-.LFB4165
	.uleb128 0
	.uleb128 .LEHB11-.LFB4165
	.uleb128 .LEHE11-.LEHB11
	.uleb128 0
	.uleb128 0
.LLSDACSE4165:
	.byte	0x1
	.byte	0
	.align 4
	.long	0

.LLSDATT4165:
	.section	.text$_ZSt16__do_uninit_copyIPKSt6vectorIcSaIcEEPS2_ET0_T_S7_S6_,"x"
	.linkonce discard
	.seh_endproc
	.section	.text$_ZNSt6vectorIS_IcSaIcEESaIS1_EE19_M_range_initializeIPKS1_EEvT_S7_St20forward_iterator_tag,"x"
	.linkonce discard
	.align 2
	.globl	_ZNSt6vectorIS_IcSaIcEESaIS1_EE19_M_range_initializeIPKS1_EEvT_S7_St20forward_iterator_tag
	.def	_ZNSt6vectorIS_IcSaIcEESaIS1_EE19_M_range_initializeIPKS1_EEvT_S7_St20forward_iterator_tag;	.scl	2;	.type	32;	.endef
	.seh_proc	_ZNSt6vectorIS_IcSaIcEESaIS1_EE19_M_range_initializeIPKS1_EEvT_S7_St20forward_iterator_tag
_ZNSt6vectorIS_IcSaIcEESaIS1_EE19_M_range_initializeIPKS1_EEvT_S7_St20forward_iterator_tag:
.LFB3545:
	pushq	%rbp
	.seh_pushreg	%rbp
	pushq	%rdi
	.seh_pushreg	%rdi
	pushq	%rsi
	.seh_pushreg	%rsi
	pushq	%rbx
	.seh_pushreg	%rbx
	subq	$40, %rsp
	.seh_stackalloc	40
	.seh_endprologue
	movq	%rcx, %rbx
	movq	%rdx, %rdi
	movq	%r8, %rbp
	movq	%r8, %rsi
	subq	%rdx, %rsi
	movq	%rsi, %rdx
	sarq	$3, %rdx
	movabsq	$-6148914691236517205, %rax
	imulq	%rax, %rdx
	movabsq	$9223372036854775800, %rax
	cmpq	%rsi, %rax
	jb	.L269
	testq	%rdx, %rdx
	je	.L268
	movl	$0, %r8d
	call	_ZNSt15__new_allocatorISt6vectorIcSaIcEEE8allocateEyPKv
	movq	%rax, %r8
.L267:
	movq	%r8, (%rbx)
	addq	%r8, %rsi
	movq	%rsi, 16(%rbx)
	movq	%rbp, %rdx
	movq	%rdi, %rcx
	call	_ZSt16__do_uninit_copyIPKSt6vectorIcSaIcEEPS2_ET0_T_S7_S6_
	movq	%rax, 8(%rbx)
	addq	$40, %rsp
	popq	%rbx
	popq	%rsi
	popq	%rdi
	popq	%rbp
	ret
.L269:
	leaq	.LC1(%rip), %rcx
	call	_ZSt20__throw_length_errorPKc
.L268:
	movl	$0, %r8d
	jmp	.L267
	.seh_endproc
	.section	.text$_ZNSt6vectorIS_IcSaIcEESaIS1_EEC1ESt16initializer_listIS1_ERKS2_,"x"
	.linkonce discard
	.align 2
	.globl	_ZNSt6vectorIS_IcSaIcEESaIS1_EEC1ESt16initializer_listIS1_ERKS2_
	.def	_ZNSt6vectorIS_IcSaIcEESaIS1_EEC1ESt16initializer_listIS1_ERKS2_;	.scl	2;	.type	32;	.endef
	.seh_proc	_ZNSt6vectorIS_IcSaIcEESaIS1_EEC1ESt16initializer_listIS1_ERKS2_
_ZNSt6vectorIS_IcSaIcEESaIS1_EEC1ESt16initializer_listIS1_ERKS2_:
.LFB3282:
	pushq	%rsi
	.seh_pushreg	%rsi
	pushq	%rbx
	.seh_pushreg	%rbx
	subq	$40, %rsp
	.seh_stackalloc	40
	.seh_endprologue
	movq	%rcx, %rbx
	movq	(%rdx), %rax
	movq	8(%rdx), %rdx
	movq	$0, (%rcx)
	movq	$0, 8(%rcx)
	movq	$0, 16(%rcx)
	leaq	(%rdx,%rdx,2), %rdx
	movl	$0, %r9d
	leaq	(%rax,%rdx,8), %r8
	movq	%rax, %rdx
.LEHB12:
	call	_ZNSt6vectorIS_IcSaIcEESaIS1_EE19_M_range_initializeIPKS1_EEvT_S7_St20forward_iterator_tag
.LEHE12:
	jmp	.L274
.L272:
	movq	%rax, %rsi
	movq	%rbx, %rcx
	call	_ZNSt12_Vector_baseISt6vectorIcSaIcEESaIS2_EED2Ev
	movq	%rsi, %rcx
.LEHB13:
	call	_Unwind_Resume
	nop
.LEHE13:
.L274:
	addq	$40, %rsp
	popq	%rbx
	popq	%rsi
	ret
	.seh_handler	__gxx_personality_seh0, @unwind, @except
	.seh_handlerdata
.LLSDA3282:
	.byte	0xff
	.byte	0xff
	.byte	0x1
	.uleb128 .LLSDACSE3282-.LLSDACSB3282
.LLSDACSB3282:
	.uleb128 .LEHB12-.LFB3282
	.uleb128 .LEHE12-.LEHB12
	.uleb128 .L272-.LFB3282
	.uleb128 0
	.uleb128 .LEHB13-.LFB3282
	.uleb128 .LEHE13-.LEHB13
	.uleb128 0
	.uleb128 0
.LLSDACSE3282:
	.section	.text$_ZNSt6vectorIS_IcSaIcEESaIS1_EEC1ESt16initializer_listIS1_ERKS2_,"x"
	.linkonce discard
	.seh_endproc
	.section	.text$_ZSt12__niter_baseIPK4TileSt6vectorIS0_SaIS0_EEET_N9__gnu_cxx17__normal_iteratorIS6_T0_EE,"x"
	.linkonce discard
	.globl	_ZSt12__niter_baseIPK4TileSt6vectorIS0_SaIS0_EEET_N9__gnu_cxx17__normal_iteratorIS6_T0_EE
	.def	_ZSt12__niter_baseIPK4TileSt6vectorIS0_SaIS0_EEET_N9__gnu_cxx17__normal_iteratorIS6_T0_EE;	.scl	2;	.type	32;	.endef
	.seh_proc	_ZSt12__niter_baseIPK4TileSt6vectorIS0_SaIS0_EEET_N9__gnu_cxx17__normal_iteratorIS6_T0_EE
_ZSt12__niter_baseIPK4TileSt6vectorIS0_SaIS0_EEET_N9__gnu_cxx17__normal_iteratorIS6_T0_EE:
.LFB4273:
	.seh_endprologue
	movq	%rcx, %rax
	ret
	.seh_endproc
	.section	.text$_ZNSt11__copy_moveILb0ELb1ESt26random_access_iterator_tagE8__copy_mIK4TileS3_EEPT0_PT_S8_S6_,"x"
	.linkonce discard
	.globl	_ZNSt11__copy_moveILb0ELb1ESt26random_access_iterator_tagE8__copy_mIK4TileS3_EEPT0_PT_S8_S6_
	.def	_ZNSt11__copy_moveILb0ELb1ESt26random_access_iterator_tagE8__copy_mIK4TileS3_EEPT0_PT_S8_S6_;	.scl	2;	.type	32;	.endef
	.seh_proc	_ZNSt11__copy_moveILb0ELb1ESt26random_access_iterator_tagE8__copy_mIK4TileS3_EEPT0_PT_S8_S6_
_ZNSt11__copy_moveILb0ELb1ESt26random_access_iterator_tagE8__copy_mIK4TileS3_EEPT0_PT_S8_S6_:
.LFB4286:
	pushq	%rsi
	.seh_pushreg	%rsi
	pushq	%rbx
	.seh_pushreg	%rbx
	subq	$40, %rsp
	.seh_stackalloc	40
	.seh_endprologue
	movq	%r8, %rbx
	subq	%rcx, %rdx
	movq	%rdx, %rsi
	cmpq	$4, %rdx
	jle	.L277
	movq	%rdx, %r8
	movq	%rcx, %rdx
	movq	%rbx, %rcx
	call	memmove
.L278:
	leaq	(%rbx,%rsi), %rax
	addq	$40, %rsp
	popq	%rbx
	popq	%rsi
	ret
.L277:
	jne	.L278
	movl	(%rcx), %eax
	movl	%eax, (%r8)
	jmp	.L278
	.seh_endproc
	.section	.text$_ZSt13__copy_move_aILb0EN9__gnu_cxx17__normal_iteratorIPK4TileSt6vectorIS2_SaIS2_EEEEPS2_ET1_T0_SB_SA_,"x"
	.linkonce discard
	.globl	_ZSt13__copy_move_aILb0EN9__gnu_cxx17__normal_iteratorIPK4TileSt6vectorIS2_SaIS2_EEEEPS2_ET1_T0_SB_SA_
	.def	_ZSt13__copy_move_aILb0EN9__gnu_cxx17__normal_iteratorIPK4TileSt6vectorIS2_SaIS2_EEEEPS2_ET1_T0_SB_SA_;	.scl	2;	.type	32;	.endef
	.seh_proc	_ZSt13__copy_move_aILb0EN9__gnu_cxx17__normal_iteratorIPK4TileSt6vectorIS2_SaIS2_EEEEPS2_ET1_T0_SB_SA_
_ZSt13__copy_move_aILb0EN9__gnu_cxx17__normal_iteratorIPK4TileSt6vectorIS2_SaIS2_EEEEPS2_ET1_T0_SB_SA_:
.LFB4264:
	pushq	%rdi
	.seh_pushreg	%rdi
	pushq	%rsi
	.seh_pushreg	%rsi
	pushq	%rbx
	.seh_pushreg	%rbx
	subq	$32, %rsp
	.seh_stackalloc	32
	.seh_endprologue
	movq	%rcx, %rdi
	movq	%rdx, %rcx
	movq	%r8, %rsi
	call	_ZSt12__niter_baseIPK4TileSt6vectorIS0_SaIS0_EEET_N9__gnu_cxx17__normal_iteratorIS6_T0_EE
	movq	%rax, %rbx
	movq	%rdi, %rcx
	call	_ZSt12__niter_baseIPK4TileSt6vectorIS0_SaIS0_EEET_N9__gnu_cxx17__normal_iteratorIS6_T0_EE
	movq	%rax, %rcx
	movq	%rsi, %r8
	movq	%rbx, %rdx
	call	_ZNSt11__copy_moveILb0ELb1ESt26random_access_iterator_tagE8__copy_mIK4TileS3_EEPT0_PT_S8_S6_
	addq	$32, %rsp
	popq	%rbx
	popq	%rsi
	popq	%rdi
	ret
	.seh_endproc
	.section	.text$_ZSt4copyIN9__gnu_cxx17__normal_iteratorIPK4TileSt6vectorIS2_SaIS2_EEEEPS2_ET0_T_SB_SA_,"x"
	.linkonce discard
	.globl	_ZSt4copyIN9__gnu_cxx17__normal_iteratorIPK4TileSt6vectorIS2_SaIS2_EEEEPS2_ET0_T_SB_SA_
	.def	_ZSt4copyIN9__gnu_cxx17__normal_iteratorIPK4TileSt6vectorIS2_SaIS2_EEEEPS2_ET0_T_SB_SA_;	.scl	2;	.type	32;	.endef
	.seh_proc	_ZSt4copyIN9__gnu_cxx17__normal_iteratorIPK4TileSt6vectorIS2_SaIS2_EEEEPS2_ET0_T_SB_SA_
_ZSt4copyIN9__gnu_cxx17__normal_iteratorIPK4TileSt6vectorIS2_SaIS2_EEEEPS2_ET0_T_SB_SA_:
.LFB4245:
	subq	$40, %rsp
	.seh_stackalloc	40
	.seh_endprologue
	call	_ZSt13__copy_move_aILb0EN9__gnu_cxx17__normal_iteratorIPK4TileSt6vectorIS2_SaIS2_EEEEPS2_ET1_T0_SB_SA_
	addq	$40, %rsp
	ret
	.seh_endproc
	.section	.text$_ZSt18uninitialized_copyIN9__gnu_cxx17__normal_iteratorIPK4TileSt6vectorIS2_SaIS2_EEEEPS2_ET0_T_SB_SA_,"x"
	.linkonce discard
	.globl	_ZSt18uninitialized_copyIN9__gnu_cxx17__normal_iteratorIPK4TileSt6vectorIS2_SaIS2_EEEEPS2_ET0_T_SB_SA_
	.def	_ZSt18uninitialized_copyIN9__gnu_cxx17__normal_iteratorIPK4TileSt6vectorIS2_SaIS2_EEEEPS2_ET0_T_SB_SA_;	.scl	2;	.type	32;	.endef
	.seh_proc	_ZSt18uninitialized_copyIN9__gnu_cxx17__normal_iteratorIPK4TileSt6vectorIS2_SaIS2_EEEEPS2_ET0_T_SB_SA_
_ZSt18uninitialized_copyIN9__gnu_cxx17__normal_iteratorIPK4TileSt6vectorIS2_SaIS2_EEEEPS2_ET0_T_SB_SA_:
.LFB4180:
	subq	$40, %rsp
	.seh_stackalloc	40
	.seh_endprologue
	call	_ZSt4copyIN9__gnu_cxx17__normal_iteratorIPK4TileSt6vectorIS2_SaIS2_EEEEPS2_ET0_T_SB_SA_
	addq	$40, %rsp
	ret
	.seh_endproc
	.section	.text$_ZNSt6vectorI4TileSaIS0_EEC1ERKS2_,"x"
	.linkonce discard
	.align 2
	.globl	_ZNSt6vectorI4TileSaIS0_EEC1ERKS2_
	.def	_ZNSt6vectorI4TileSaIS0_EEC1ERKS2_;	.scl	2;	.type	32;	.endef
	.seh_proc	_ZNSt6vectorI4TileSaIS0_EEC1ERKS2_
_ZNSt6vectorI4TileSaIS0_EEC1ERKS2_:
.LFB4033:
	pushq	%rsi
	.seh_pushreg	%rsi
	pushq	%rbx
	.seh_pushreg	%rbx
	subq	$56, %rsp
	.seh_stackalloc	56
	.seh_endprologue
	movq	%rcx, %rsi
	movq	%rdx, %rbx
	movq	8(%rdx), %rdx
	subq	(%rbx), %rdx
	sarq	$2, %rdx
	leaq	47(%rsp), %r8
	call	_ZNSt12_Vector_baseI4TileSaIS0_EEC2EyRKS1_
	movq	8(%rbx), %rdx
	movq	(%rbx), %rcx
	movq	(%rsi), %r8
	call	_ZSt18uninitialized_copyIN9__gnu_cxx17__normal_iteratorIPK4TileSt6vectorIS2_SaIS2_EEEEPS2_ET0_T_SB_SA_
	movq	%rax, 8(%rsi)
	addq	$56, %rsp
	popq	%rbx
	popq	%rsi
	ret
	.seh_endproc
	.section	.text$_ZNSt6vectorIS_I4TileSaIS0_EESaIS2_EE17_M_realloc_insertIJRKS2_EEEvN9__gnu_cxx17__normal_iteratorIPS2_S4_EEDpOT_,"x"
	.linkonce discard
	.align 2
	.globl	_ZNSt6vectorIS_I4TileSaIS0_EESaIS2_EE17_M_realloc_insertIJRKS2_EEEvN9__gnu_cxx17__normal_iteratorIPS2_S4_EEDpOT_
	.def	_ZNSt6vectorIS_I4TileSaIS0_EESaIS2_EE17_M_realloc_insertIJRKS2_EEEvN9__gnu_cxx17__normal_iteratorIPS2_S4_EEDpOT_;	.scl	2;	.type	32;	.endef
	.seh_proc	_ZNSt6vectorIS_I4TileSaIS0_EESaIS2_EE17_M_realloc_insertIJRKS2_EEEvN9__gnu_cxx17__normal_iteratorIPS2_S4_EEDpOT_
_ZNSt6vectorIS_I4TileSaIS0_EESaIS2_EE17_M_realloc_insertIJRKS2_EEEvN9__gnu_cxx17__normal_iteratorIPS2_S4_EEDpOT_:
.LFB3600:
	pushq	%r15
	.seh_pushreg	%r15
	pushq	%r14
	.seh_pushreg	%r14
	pushq	%r13
	.seh_pushreg	%r13
	pushq	%r12
	.seh_pushreg	%r12
	pushq	%rbp
	.seh_pushreg	%rbp
	pushq	%rdi
	.seh_pushreg	%rdi
	pushq	%rsi
	.seh_pushreg	%rsi
	pushq	%rbx
	.seh_pushreg	%rbx
	subq	$40, %rsp
	.seh_stackalloc	40
	.seh_endprologue
	movq	%rcx, %rbx
	movq	%rdx, %rbp
	movq	%r8, %r14
	leaq	.LC0(%rip), %r8
	movl	$1, %edx
.LEHB14:
	call	_ZNKSt6vectorIS_I4TileSaIS0_EESaIS2_EE12_M_check_lenEyPKc
	movq	%rax, %rsi
	movq	(%rbx), %r12
	movq	8(%rbx), %r15
	movq	%rbp, %r13
	subq	%r12, %r13
	testq	%rax, %rax
	je	.L290
	movl	$0, %r8d
	movq	%rax, %rdx
	movq	%rbx, %rcx
	call	_ZNSt15__new_allocatorISt6vectorI4TileSaIS1_EEE8allocateEyPKv
.LEHE14:
	movq	%rax, %rdi
.L284:
	addq	%rdi, %r13
	movq	%r14, %rdx
	movq	%r13, %rcx
.LEHB15:
	call	_ZNSt6vectorI4TileSaIS0_EEC1ERKS2_
.LEHE15:
	jmp	.L294
.L290:
	movl	$0, %edi
	jmp	.L284
.L294:
	movq	%rbx, %r9
	movq	%rdi, %r8
	movq	%rbp, %rdx
	movq	%r12, %rcx
	call	_ZSt14__relocate_a_1IPSt6vectorI4TileSaIS1_EES4_SaIS3_EET0_T_S7_S6_RT1_
	movq	%rbx, %r9
	leaq	24(%rax), %r8
	movq	%r15, %rdx
	movq	%rbp, %rcx
	call	_ZSt14__relocate_a_1IPSt6vectorI4TileSaIS1_EES4_SaIS3_EET0_T_S7_S6_RT1_
	movq	%rax, %rbp
	movq	16(%rbx), %r8
	subq	%r12, %r8
	sarq	$3, %r8
	movabsq	$-6148914691236517205, %rax
	imulq	%rax, %r8
	testq	%r12, %r12
	je	.L285
	movq	%r12, %rdx
	movq	%rbx, %rcx
	call	_ZNSt15__new_allocatorISt6vectorI4TileSaIS1_EEE10deallocateEPS3_y
.L285:
	movq	%rdi, (%rbx)
	movq	%rbp, 8(%rbx)
	leaq	(%rsi,%rsi,2), %rax
	leaq	(%rdi,%rax,8), %rax
	movq	%rax, 16(%rbx)
	addq	$40, %rsp
	popq	%rbx
	popq	%rsi
	popq	%rdi
	popq	%rbp
	popq	%r12
	popq	%r13
	popq	%r14
	popq	%r15
	ret
.L291:
	movq	%rax, %rcx
	call	__cxa_begin_catch
	testq	%rdi, %rdi
	jne	.L287
	movq	%r13, %rcx
	call	_ZNSt6vectorI4TileSaIS0_EED1Ev
.L288:
.LEHB16:
	call	__cxa_rethrow
.LEHE16:
.L292:
	movq	%rax, %rbx
	call	__cxa_end_catch
	movq	%rbx, %rcx
.LEHB17:
	call	_Unwind_Resume
.LEHE17:
.L287:
	movq	%rsi, %r8
	movq	%rdi, %rdx
	movq	%rbx, %rcx
	call	_ZNSt15__new_allocatorISt6vectorI4TileSaIS1_EEE10deallocateEPS3_y
	jmp	.L288
	.seh_handler	__gxx_personality_seh0, @unwind, @except
	.seh_handlerdata
	.align 4
.LLSDA3600:
	.byte	0xff
	.byte	0x9b
	.uleb128 .LLSDATT3600-.LLSDATTD3600
.LLSDATTD3600:
	.byte	0x1
	.uleb128 .LLSDACSE3600-.LLSDACSB3600
.LLSDACSB3600:
	.uleb128 .LEHB14-.LFB3600
	.uleb128 .LEHE14-.LEHB14
	.uleb128 0
	.uleb128 0
	.uleb128 .LEHB15-.LFB3600
	.uleb128 .LEHE15-.LEHB15
	.uleb128 .L291-.LFB3600
	.uleb128 0x1
	.uleb128 .LEHB16-.LFB3600
	.uleb128 .LEHE16-.LEHB16
	.uleb128 .L292-.LFB3600
	.uleb128 0
	.uleb128 .LEHB17-.LFB3600
	.uleb128 .LEHE17-.LEHB17
	.uleb128 0
	.uleb128 0
.LLSDACSE3600:
	.byte	0x1
	.byte	0
	.align 4
	.long	0

.LLSDATT3600:
	.section	.text$_ZNSt6vectorIS_I4TileSaIS0_EESaIS2_EE17_M_realloc_insertIJRKS2_EEEvN9__gnu_cxx17__normal_iteratorIPS2_S4_EEDpOT_,"x"
	.linkonce discard
	.seh_endproc
	.section	.text$_ZNSt6vectorIS_I4TileSaIS0_EESaIS2_EE9push_backERKS2_,"x"
	.linkonce discard
	.align 2
	.globl	_ZNSt6vectorIS_I4TileSaIS0_EESaIS2_EE9push_backERKS2_
	.def	_ZNSt6vectorIS_I4TileSaIS0_EESaIS2_EE9push_backERKS2_;	.scl	2;	.type	32;	.endef
	.seh_proc	_ZNSt6vectorIS_I4TileSaIS0_EESaIS2_EE9push_backERKS2_
_ZNSt6vectorIS_I4TileSaIS0_EESaIS2_EE9push_backERKS2_:
.LFB3324:
	pushq	%rbx
	.seh_pushreg	%rbx
	subq	$32, %rsp
	.seh_stackalloc	32
	.seh_endprologue
	movq	%rcx, %rbx
	movq	8(%rcx), %rcx
	cmpq	16(%rbx), %rcx
	je	.L296
	call	_ZNSt6vectorI4TileSaIS0_EEC1ERKS2_
	movq	8(%rbx), %rax
	addq	$24, %rax
	movq	%rax, 8(%rbx)
.L295:
	addq	$32, %rsp
	popq	%rbx
	ret
.L296:
	movq	%rdx, %r8
	movq	%rcx, %rdx
	movq	%rbx, %rcx
	call	_ZNSt6vectorIS_I4TileSaIS0_EESaIS2_EE17_M_realloc_insertIJRKS2_EEEvN9__gnu_cxx17__normal_iteratorIPS2_S4_EEDpOT_
	jmp	.L295
	.seh_endproc
	.section	.text$_ZSt16__do_uninit_copyIN9__gnu_cxx17__normal_iteratorIPKSt6vectorI4TileSaIS3_EES2_IS5_SaIS5_EEEEPS5_ET0_T_SD_SC_,"x"
	.linkonce discard
	.globl	_ZSt16__do_uninit_copyIN9__gnu_cxx17__normal_iteratorIPKSt6vectorI4TileSaIS3_EES2_IS5_SaIS5_EEEEPS5_ET0_T_SD_SC_
	.def	_ZSt16__do_uninit_copyIN9__gnu_cxx17__normal_iteratorIPKSt6vectorI4TileSaIS3_EES2_IS5_SaIS5_EEEEPS5_ET0_T_SD_SC_;	.scl	2;	.type	32;	.endef
	.seh_proc	_ZSt16__do_uninit_copyIN9__gnu_cxx17__normal_iteratorIPKSt6vectorI4TileSaIS3_EES2_IS5_SaIS5_EEEEPS5_ET0_T_SD_SC_
_ZSt16__do_uninit_copyIN9__gnu_cxx17__normal_iteratorIPKSt6vectorI4TileSaIS3_EES2_IS5_SaIS5_EEEEPS5_ET0_T_SD_SC_:
.LFB4134:
	pushq	%rbp
	.seh_pushreg	%rbp
	pushq	%rdi
	.seh_pushreg	%rdi
	pushq	%rsi
	.seh_pushreg	%rsi
	pushq	%rbx
	.seh_pushreg	%rbx
	subq	$40, %rsp
	.seh_stackalloc	40
	.seh_endprologue
	movq	%rdx, %rdi
	movq	%r8, %rbp
	movq	%r8, %rbx
	jmp	.L299
.L309:
	leaq	24(%rsi), %rcx
	addq	$24, %rbx
.L299:
	movq	%rcx, %rsi
	cmpq	%rdi, %rcx
	je	.L308
	movq	%rcx, %rdx
	movq	%rbx, %rcx
.LEHB18:
	call	_ZNSt6vectorI4TileSaIS0_EEC1ERKS2_
.LEHE18:
	jmp	.L309
.L305:
	movq	%rax, %rcx
	call	__cxa_begin_catch
.L302:
	cmpq	%rbp, %rbx
	jne	.L303
.LEHB19:
	call	__cxa_rethrow
.LEHE19:
.L306:
	movq	%rax, %rbx
	call	__cxa_end_catch
	movq	%rbx, %rcx
.LEHB20:
	call	_Unwind_Resume
.LEHE20:
.L303:
	movq	%rbp, %rcx
	call	_ZNSt6vectorI4TileSaIS0_EED1Ev
	addq	$24, %rbp
	jmp	.L302
.L308:
	movq	%rbx, %rax
	addq	$40, %rsp
	popq	%rbx
	popq	%rsi
	popq	%rdi
	popq	%rbp
	ret
	.seh_handler	__gxx_personality_seh0, @unwind, @except
	.seh_handlerdata
	.align 4
.LLSDA4134:
	.byte	0xff
	.byte	0x9b
	.uleb128 .LLSDATT4134-.LLSDATTD4134
.LLSDATTD4134:
	.byte	0x1
	.uleb128 .LLSDACSE4134-.LLSDACSB4134
.LLSDACSB4134:
	.uleb128 .LEHB18-.LFB4134
	.uleb128 .LEHE18-.LEHB18
	.uleb128 .L305-.LFB4134
	.uleb128 0x1
	.uleb128 .LEHB19-.LFB4134
	.uleb128 .LEHE19-.LEHB19
	.uleb128 .L306-.LFB4134
	.uleb128 0
	.uleb128 .LEHB20-.LFB4134
	.uleb128 .LEHE20-.LEHB20
	.uleb128 0
	.uleb128 0
.LLSDACSE4134:
	.byte	0x1
	.byte	0
	.align 4
	.long	0

.LLSDATT4134:
	.section	.text$_ZSt16__do_uninit_copyIN9__gnu_cxx17__normal_iteratorIPKSt6vectorI4TileSaIS3_EES2_IS5_SaIS5_EEEEPS5_ET0_T_SD_SC_,"x"
	.linkonce discard
	.seh_endproc
	.section	.text$_ZSt18uninitialized_copyIN9__gnu_cxx17__normal_iteratorIPKSt6vectorI4TileSaIS3_EES2_IS5_SaIS5_EEEEPS5_ET0_T_SD_SC_,"x"
	.linkonce discard
	.globl	_ZSt18uninitialized_copyIN9__gnu_cxx17__normal_iteratorIPKSt6vectorI4TileSaIS3_EES2_IS5_SaIS5_EEEEPS5_ET0_T_SD_SC_
	.def	_ZSt18uninitialized_copyIN9__gnu_cxx17__normal_iteratorIPKSt6vectorI4TileSaIS3_EES2_IS5_SaIS5_EEEEPS5_ET0_T_SD_SC_;	.scl	2;	.type	32;	.endef
	.seh_proc	_ZSt18uninitialized_copyIN9__gnu_cxx17__normal_iteratorIPKSt6vectorI4TileSaIS3_EES2_IS5_SaIS5_EEEEPS5_ET0_T_SD_SC_
_ZSt18uninitialized_copyIN9__gnu_cxx17__normal_iteratorIPKSt6vectorI4TileSaIS3_EES2_IS5_SaIS5_EEEEPS5_ET0_T_SD_SC_:
.LFB3858:
	subq	$40, %rsp
	.seh_stackalloc	40
	.seh_endprologue
	call	_ZSt16__do_uninit_copyIN9__gnu_cxx17__normal_iteratorIPKSt6vectorI4TileSaIS3_EES2_IS5_SaIS5_EEEEPS5_ET0_T_SD_SC_
	addq	$40, %rsp
	ret
	.seh_endproc
	.section	.text$_ZNSt6vectorIS_I4TileSaIS0_EESaIS2_EEC1ERKS4_,"x"
	.linkonce discard
	.align 2
	.globl	_ZNSt6vectorIS_I4TileSaIS0_EESaIS2_EEC1ERKS4_
	.def	_ZNSt6vectorIS_I4TileSaIS0_EESaIS2_EEC1ERKS4_;	.scl	2;	.type	32;	.endef
	.seh_proc	_ZNSt6vectorIS_I4TileSaIS0_EESaIS2_EEC1ERKS4_
_ZNSt6vectorIS_I4TileSaIS0_EESaIS2_EEC1ERKS4_:
.LFB3328:
	pushq	%rsi
	.seh_pushreg	%rsi
	pushq	%rbx
	.seh_pushreg	%rbx
	subq	$56, %rsp
	.seh_stackalloc	56
	.seh_endprologue
	movq	%rcx, %rsi
	movq	%rdx, %rbx
	movq	8(%rdx), %rdx
	subq	(%rbx), %rdx
	sarq	$3, %rdx
	movabsq	$-6148914691236517205, %rax
	imulq	%rax, %rdx
	leaq	47(%rsp), %r8
.LEHB21:
	call	_ZNSt12_Vector_baseISt6vectorI4TileSaIS1_EESaIS3_EEC2EyRKS4_
.LEHE21:
	movq	8(%rbx), %rdx
	movq	(%rbx), %rcx
	movq	(%rsi), %r8
.LEHB22:
	call	_ZSt18uninitialized_copyIN9__gnu_cxx17__normal_iteratorIPKSt6vectorI4TileSaIS3_EES2_IS5_SaIS5_EEEEPS5_ET0_T_SD_SC_
.LEHE22:
	movq	%rax, 8(%rsi)
	addq	$56, %rsp
	popq	%rbx
	popq	%rsi
	ret
.L313:
	movq	%rax, %rbx
	movq	%rsi, %rcx
	call	_ZNSt12_Vector_baseISt6vectorI4TileSaIS1_EESaIS3_EED2Ev
	movq	%rbx, %rcx
.LEHB23:
	call	_Unwind_Resume
	nop
.LEHE23:
	.seh_handler	__gxx_personality_seh0, @unwind, @except
	.seh_handlerdata
.LLSDA3328:
	.byte	0xff
	.byte	0xff
	.byte	0x1
	.uleb128 .LLSDACSE3328-.LLSDACSB3328
.LLSDACSB3328:
	.uleb128 .LEHB21-.LFB3328
	.uleb128 .LEHE21-.LEHB21
	.uleb128 0
	.uleb128 0
	.uleb128 .LEHB22-.LFB3328
	.uleb128 .LEHE22-.LEHB22
	.uleb128 .L313-.LFB3328
	.uleb128 0
	.uleb128 .LEHB23-.LFB3328
	.uleb128 .LEHE23-.LEHB23
	.uleb128 0
	.uleb128 0
.LLSDACSE3328:
	.section	.text$_ZNSt6vectorIS_I4TileSaIS0_EESaIS2_EEC1ERKS4_,"x"
	.linkonce discard
	.seh_endproc
	.def	__main;	.scl	2;	.type	32;	.endef
	.section .rdata,"dr"
.LC2:
	.ascii "Hello World\0"
	.text
	.globl	main
	.def	main;	.scl	2;	.type	32;	.endef
	.seh_proc	main
main:
.LFB2916:
	pushq	%rbp
	.seh_pushreg	%rbp
	pushq	%rdi
	.seh_pushreg	%rdi
	pushq	%rsi
	.seh_pushreg	%rsi
	pushq	%rbx
	.seh_pushreg	%rbx
	subq	$632, %rsp
	.seh_stackalloc	632
	.seh_endprologue
	call	__main
	leaq	.LC2(%rip), %rdx
	movq	.refptr._ZSt4cout(%rip), %rcx
.LEHB24:
	call	_ZStlsISt11char_traitsIcEERSt13basic_ostreamIcT_ES5_PKc
	movq	%rax, %rcx
	call	_ZSt4endlIcSt11char_traitsIcEERSt13basic_ostreamIT_T0_ES6_
.LEHE24:
	movb	$32, 490(%rsp)
	movb	$32, 491(%rsp)
	movb	$32, 492(%rsp)
	movb	$32, 493(%rsp)
	movb	$32, 494(%rsp)
	movb	$32, 495(%rsp)
	movb	$32, 496(%rsp)
	movb	$32, 497(%rsp)
	movb	$32, 498(%rsp)
	movb	$32, 499(%rsp)
	leaq	490(%rsp), %rax
	movq	%rax, 32(%rsp)
	movq	$10, 40(%rsp)
	leaq	32(%rsp), %rdx
	leaq	96(%rsp), %rcx
	leaq	500(%rsp), %r8
.LEHB25:
	call	_ZNSt6vectorIcSaIcEEC1ESt16initializer_listIcERKS0_
.LEHE25:
	jmp	.L381
.L360:
	movq	%rax, %rbx
	movl	$9, %eax
.L318:
	movl	$9, %edx
	subq	%rax, %rdx
	imulq	$24, %rdx, %rax
	leaq	96(%rsp,%rax), %rsi
.L347:
	leaq	96(%rsp), %rax
	cmpq	%rax, %rsi
	je	.L346
	subq	$24, %rsi
	movq	%rsi, %rcx
	call	_ZNSt6vectorIcSaIcEED1Ev
	jmp	.L347
.L381:
	movb	$32, 501(%rsp)
	movb	$52, 502(%rsp)
	movb	$32, 503(%rsp)
	movb	$32, 504(%rsp)
	movb	$32, 505(%rsp)
	movb	$32, 506(%rsp)
	movb	$32, 507(%rsp)
	movb	$32, 508(%rsp)
	movb	$32, 509(%rsp)
	movb	$51, 510(%rsp)
	leaq	501(%rsp), %rax
	movq	%rax, 32(%rsp)
	movq	$10, 40(%rsp)
	leaq	32(%rsp), %rdx
	leaq	120(%rsp), %rcx
	leaq	500(%rsp), %r8
.LEHB26:
	call	_ZNSt6vectorIcSaIcEEC1ESt16initializer_listIcERKS0_
.LEHE26:
	jmp	.L382
.L362:
	movq	%rax, %rbx
	movl	$8, %eax
	jmp	.L318
.L382:
	movb	$32, 511(%rsp)
	movb	$32, 512(%rsp)
	movb	$52, 513(%rsp)
	movb	$32, 514(%rsp)
	movb	$32, 515(%rsp)
	movb	$53, 516(%rsp)
	movb	$32, 517(%rsp)
	movb	$51, 518(%rsp)
	movb	$32, 519(%rsp)
	movb	$32, 520(%rsp)
	leaq	511(%rsp), %rax
	movq	%rax, 32(%rsp)
	movq	$10, 40(%rsp)
	leaq	32(%rsp), %rdx
	leaq	144(%rsp), %rcx
	leaq	500(%rsp), %r8
.LEHB27:
	call	_ZNSt6vectorIcSaIcEEC1ESt16initializer_listIcERKS0_
.LEHE27:
	jmp	.L383
.L361:
	movq	%rax, %rbx
	movl	$7, %eax
	jmp	.L318
.L383:
	movb	$32, 521(%rsp)
	movb	$32, 522(%rsp)
	movb	$32, 523(%rsp)
	movb	$32, 524(%rsp)
	movb	$32, 525(%rsp)
	movb	$32, 526(%rsp)
	movb	$32, 527(%rsp)
	movb	$32, 528(%rsp)
	movb	$32, 529(%rsp)
	movb	$50, 530(%rsp)
	leaq	521(%rsp), %rax
	movq	%rax, 32(%rsp)
	movq	$10, 40(%rsp)
	leaq	32(%rsp), %rdx
	leaq	168(%rsp), %rcx
	leaq	500(%rsp), %r8
.LEHB28:
	call	_ZNSt6vectorIcSaIcEEC1ESt16initializer_listIcERKS0_
.LEHE28:
	jmp	.L384
.L364:
	movq	%rax, %rbx
	movl	$6, %eax
	jmp	.L318
.L384:
	movb	$32, 531(%rsp)
	movb	$32, 532(%rsp)
	movb	$32, 533(%rsp)
	movb	$51, 534(%rsp)
	movb	$32, 535(%rsp)
	movb	$54, 536(%rsp)
	movb	$32, 537(%rsp)
	movb	$53, 538(%rsp)
	movb	$32, 539(%rsp)
	movb	$32, 540(%rsp)
	leaq	531(%rsp), %rax
	movq	%rax, 32(%rsp)
	movq	$10, 40(%rsp)
	leaq	32(%rsp), %rdx
	leaq	192(%rsp), %rcx
	leaq	500(%rsp), %r8
.LEHB29:
	call	_ZNSt6vectorIcSaIcEEC1ESt16initializer_listIcERKS0_
.LEHE29:
	jmp	.L385
.L363:
	movq	%rax, %rbx
	movl	$5, %eax
	jmp	.L318
.L385:
	movb	$32, 541(%rsp)
	movb	$52, 542(%rsp)
	movb	$32, 543(%rsp)
	movb	$32, 544(%rsp)
	movb	$32, 545(%rsp)
	movb	$32, 546(%rsp)
	movb	$32, 547(%rsp)
	movb	$32, 548(%rsp)
	movb	$32, 549(%rsp)
	movb	$32, 550(%rsp)
	leaq	541(%rsp), %rax
	movq	%rax, 32(%rsp)
	movq	$10, 40(%rsp)
	leaq	32(%rsp), %rdx
	leaq	216(%rsp), %rcx
	leaq	500(%rsp), %r8
.LEHB30:
	call	_ZNSt6vectorIcSaIcEEC1ESt16initializer_listIcERKS0_
.LEHE30:
	jmp	.L386
.L366:
	movq	%rax, %rbx
	movl	$4, %eax
	jmp	.L318
.L386:
	movb	$32, 551(%rsp)
	movb	$32, 552(%rsp)
	movb	$32, 553(%rsp)
	movb	$50, 554(%rsp)
	movb	$32, 555(%rsp)
	movb	$51, 556(%rsp)
	movb	$32, 557(%rsp)
	movb	$51, 558(%rsp)
	movb	$32, 559(%rsp)
	movb	$32, 560(%rsp)
	leaq	551(%rsp), %rax
	movq	%rax, 32(%rsp)
	movq	$10, 40(%rsp)
	leaq	32(%rsp), %rdx
	leaq	240(%rsp), %rcx
	leaq	500(%rsp), %r8
.LEHB31:
	call	_ZNSt6vectorIcSaIcEEC1ESt16initializer_listIcERKS0_
.LEHE31:
	jmp	.L387
.L365:
	movq	%rax, %rbx
	movl	$3, %eax
	jmp	.L318
.L387:
	movb	$32, 561(%rsp)
	movb	$32, 562(%rsp)
	movb	$32, 563(%rsp)
	movb	$32, 564(%rsp)
	movb	$32, 565(%rsp)
	movb	$32, 566(%rsp)
	movb	$32, 567(%rsp)
	movb	$32, 568(%rsp)
	movb	$32, 569(%rsp)
	movb	$32, 570(%rsp)
	leaq	561(%rsp), %rax
	movq	%rax, 32(%rsp)
	movq	$10, 40(%rsp)
	leaq	32(%rsp), %rdx
	leaq	264(%rsp), %rcx
	leaq	500(%rsp), %r8
.LEHB32:
	call	_ZNSt6vectorIcSaIcEEC1ESt16initializer_listIcERKS0_
.LEHE32:
	jmp	.L388
.L368:
	movq	%rax, %rbx
	movl	$2, %eax
	jmp	.L318
.L388:
	movb	$32, 571(%rsp)
	movb	$32, 572(%rsp)
	movb	$51, 573(%rsp)
	movb	$32, 574(%rsp)
	movb	$32, 575(%rsp)
	movb	$32, 576(%rsp)
	movb	$32, 577(%rsp)
	movb	$32, 578(%rsp)
	movb	$32, 579(%rsp)
	movb	$50, 580(%rsp)
	leaq	571(%rsp), %rax
	movq	%rax, 32(%rsp)
	movq	$10, 40(%rsp)
	leaq	32(%rsp), %rdx
	leaq	288(%rsp), %rcx
	leaq	500(%rsp), %r8
.LEHB33:
	call	_ZNSt6vectorIcSaIcEEC1ESt16initializer_listIcERKS0_
.LEHE33:
	jmp	.L389
.L367:
	movq	%rax, %rbx
	movl	$1, %eax
	jmp	.L318
.L389:
	movb	$32, 581(%rsp)
	movb	$51, 582(%rsp)
	movb	$32, 583(%rsp)
	movb	$50, 584(%rsp)
	movb	$32, 585(%rsp)
	movb	$51, 586(%rsp)
	movb	$32, 587(%rsp)
	movb	$32, 588(%rsp)
	movb	$50, 589(%rsp)
	movb	$32, 590(%rsp)
	leaq	581(%rsp), %rax
	movq	%rax, 32(%rsp)
	movq	$10, 40(%rsp)
	leaq	32(%rsp), %rdx
	leaq	312(%rsp), %rcx
	leaq	500(%rsp), %r8
.LEHB34:
	call	_ZNSt6vectorIcSaIcEEC1ESt16initializer_listIcERKS0_
.LEHE34:
	jmp	.L390
.L353:
	movq	%rax, %rbx
	movl	$0, %eax
	jmp	.L318
.L390:
	leaq	96(%rsp), %rax
	movq	%rax, 32(%rsp)
	movq	$10, 40(%rsp)
	leaq	32(%rsp), %rdx
	leaq	464(%rsp), %rcx
	leaq	591(%rsp), %r8
.LEHB35:
	call	_ZNSt6vectorIS_IcSaIcEESaIS1_EEC1ESt16initializer_listIS1_ERKS2_
.LEHE35:
	leaq	336(%rsp), %rbx
.L338:
	leaq	96(%rsp), %rax
	cmpq	%rax, %rbx
	je	.L337
	subq	$24, %rbx
	movq	%rbx, %rcx
	call	_ZNSt6vectorIcSaIcEED1Ev
	jmp	.L338
.L337:
	movq	$0, 432(%rsp)
	movq	$0, 440(%rsp)
	movq	$0, 448(%rsp)
	leaq	336(%rsp), %rcx
.LEHB36:
	call	_ZN10TileHelperC1Ev
.LEHE36:
	movq	464(%rsp), %rdx
	movq	472(%rsp), %rbp
	jmp	.L339
.L394:
	movq	$0, 96(%rsp)
	movq	$0, 104(%rsp)
	movq	$0, 112(%rsp)
	movq	64(%rsp), %rax
	movq	72(%rsp), %rsi
	jmp	.L340
.L392:
	movq	%rax, %rdx
	leaq	96(%rsp), %rcx
.LEHB37:
	call	_ZNSt6vectorI4TileSaIS0_EE9push_backERKS0_
	leaq	1(%rbx), %rax
.L340:
	movq	%rax, %rbx
	cmpq	%rax, %rsi
	je	.L391
	movzbl	(%rax), %eax
	movb	%al, 63(%rsp)
	leaq	63(%rsp), %rdx
	leaq	384(%rsp), %rcx
	call	_ZNSt3mapIc4TileSt4lessIcESaISt4pairIKcS0_EEEixERS4_
	jmp	.L392
.L391:
	leaq	96(%rsp), %rdx
	leaq	432(%rsp), %rcx
	call	_ZNSt6vectorIS_I4TileSaIS0_EESaIS2_EE9push_backERKS2_
.LEHE37:
	leaq	96(%rsp), %rcx
	call	_ZNSt6vectorI4TileSaIS0_EED1Ev
	leaq	64(%rsp), %rcx
	call	_ZNSt6vectorIcSaIcEED1Ev
	leaq	24(%rdi), %rdx
.L339:
	movq	%rdx, %rdi
	cmpq	%rdx, %rbp
	je	.L393
	leaq	64(%rsp), %rcx
.LEHB38:
	call	_ZNSt6vectorIcSaIcEEC1ERKS1_
	jmp	.L394
.L393:
	movl	$64, %ecx
	call	_Znwy
.LEHE38:
	movq	%rax, %rbx
	leaq	432(%rsp), %rdx
	leaq	592(%rsp), %rcx
.LEHB39:
	call	_ZNSt6vectorIS_I4TileSaIS0_EESaIS2_EEC1ERKS4_
.LEHE39:
	leaq	592(%rsp), %rdx
	movq	%rbx, %rcx
.LEHB40:
	call	_ZN22HashiMemImplementationC1ESt6vectorIS0_I4TileSaIS1_EESaIS3_EE
.LEHE40:
	leaq	592(%rsp), %rcx
	call	_ZNSt6vectorIS_I4TileSaIS0_EESaIS2_EED1Ev
	movq	(%rbx), %rax
	movq	%rbx, %rcx
.LEHB41:
	call	*16(%rax)
.LEHE41:
	jmp	.L395
.L354:
	movq	%rax, %rbx
	leaq	336(%rsp), %rsi
.L344:
	leaq	96(%rsp), %rax
	cmpq	%rax, %rsi
	je	.L345
	subq	$24, %rsi
	movq	%rsi, %rcx
	call	_ZNSt6vectorIcSaIcEED1Ev
	jmp	.L344
.L345:
	movl	$9, %eax
	jmp	.L318
.L346:
	movq	%rbx, %rcx
.LEHB42:
	call	_Unwind_Resume
.L356:
	movq	%rax, %rbx
	leaq	96(%rsp), %rcx
	call	_ZNSt6vectorI4TileSaIS0_EED1Ev
	leaq	64(%rsp), %rcx
	call	_ZNSt6vectorIcSaIcEED1Ev
.L349:
	leaq	336(%rsp), %rsi
	leaq	384(%rsp), %rcx
	call	_ZNSt8_Rb_treeIcSt4pairIKc4TileESt10_Select1stIS3_ESt4lessIcESaIS3_EED1Ev
	movq	%rsi, %rcx
	call	_ZNSt8_Rb_treeI4TileSt4pairIKS0_cESt10_Select1stIS3_ESt4lessIS0_ESaIS3_EED1Ev
.L352:
	leaq	432(%rsp), %rcx
	call	_ZNSt6vectorIS_I4TileSaIS0_EESaIS2_EED1Ev
	leaq	464(%rsp), %rcx
	call	_ZNSt6vectorIS_IcSaIcEESaIS1_EED1Ev
	movq	%rbx, %rcx
	call	_Unwind_Resume
.LEHE42:
.L359:
	movq	%rax, %rsi
	leaq	592(%rsp), %rcx
	call	_ZNSt6vectorIS_I4TileSaIS0_EESaIS2_EED1Ev
.L351:
	movl	$64, %edx
	movq	%rbx, %rcx
	call	_ZdlPvy
	movq	%rsi, %rbx
	jmp	.L349
.L358:
	movq	%rax, %rsi
	jmp	.L351
.L357:
	movq	%rax, %rbx
	jmp	.L349
.L355:
	movq	%rax, %rbx
	jmp	.L352
.L395:
	movq	(%rbx), %rax
	movq	%rbx, %rcx
	call	*8(%rax)
	leaq	336(%rsp), %rbx
	leaq	384(%rsp), %rcx
	call	_ZNSt8_Rb_treeIcSt4pairIKc4TileESt10_Select1stIS3_ESt4lessIcESaIS3_EED1Ev
	movq	%rbx, %rcx
	call	_ZNSt8_Rb_treeI4TileSt4pairIKS0_cESt10_Select1stIS3_ESt4lessIS0_ESaIS3_EED1Ev
	leaq	432(%rsp), %rcx
	call	_ZNSt6vectorIS_I4TileSaIS0_EESaIS2_EED1Ev
	leaq	464(%rsp), %rcx
	call	_ZNSt6vectorIS_IcSaIcEESaIS1_EED1Ev
	movl	$0, %eax
	addq	$632, %rsp
	popq	%rbx
	popq	%rsi
	popq	%rdi
	popq	%rbp
	ret
	.seh_handler	__gxx_personality_seh0, @unwind, @except
	.seh_handlerdata
.LLSDA2916:
	.byte	0xff
	.byte	0xff
	.byte	0x1
	.uleb128 .LLSDACSE2916-.LLSDACSB2916
.LLSDACSB2916:
	.uleb128 .LEHB24-.LFB2916
	.uleb128 .LEHE24-.LEHB24
	.uleb128 0
	.uleb128 0
	.uleb128 .LEHB25-.LFB2916
	.uleb128 .LEHE25-.LEHB25
	.uleb128 .L360-.LFB2916
	.uleb128 0
	.uleb128 .LEHB26-.LFB2916
	.uleb128 .LEHE26-.LEHB26
	.uleb128 .L362-.LFB2916
	.uleb128 0
	.uleb128 .LEHB27-.LFB2916
	.uleb128 .LEHE27-.LEHB27
	.uleb128 .L361-.LFB2916
	.uleb128 0
	.uleb128 .LEHB28-.LFB2916
	.uleb128 .LEHE28-.LEHB28
	.uleb128 .L364-.LFB2916
	.uleb128 0
	.uleb128 .LEHB29-.LFB2916
	.uleb128 .LEHE29-.LEHB29
	.uleb128 .L363-.LFB2916
	.uleb128 0
	.uleb128 .LEHB30-.LFB2916
	.uleb128 .LEHE30-.LEHB30
	.uleb128 .L366-.LFB2916
	.uleb128 0
	.uleb128 .LEHB31-.LFB2916
	.uleb128 .LEHE31-.LEHB31
	.uleb128 .L365-.LFB2916
	.uleb128 0
	.uleb128 .LEHB32-.LFB2916
	.uleb128 .LEHE32-.LEHB32
	.uleb128 .L368-.LFB2916
	.uleb128 0
	.uleb128 .LEHB33-.LFB2916
	.uleb128 .LEHE33-.LEHB33
	.uleb128 .L367-.LFB2916
	.uleb128 0
	.uleb128 .LEHB34-.LFB2916
	.uleb128 .LEHE34-.LEHB34
	.uleb128 .L353-.LFB2916
	.uleb128 0
	.uleb128 .LEHB35-.LFB2916
	.uleb128 .LEHE35-.LEHB35
	.uleb128 .L354-.LFB2916
	.uleb128 0
	.uleb128 .LEHB36-.LFB2916
	.uleb128 .LEHE36-.LEHB36
	.uleb128 .L355-.LFB2916
	.uleb128 0
	.uleb128 .LEHB37-.LFB2916
	.uleb128 .LEHE37-.LEHB37
	.uleb128 .L356-.LFB2916
	.uleb128 0
	.uleb128 .LEHB38-.LFB2916
	.uleb128 .LEHE38-.LEHB38
	.uleb128 .L357-.LFB2916
	.uleb128 0
	.uleb128 .LEHB39-.LFB2916
	.uleb128 .LEHE39-.LEHB39
	.uleb128 .L358-.LFB2916
	.uleb128 0
	.uleb128 .LEHB40-.LFB2916
	.uleb128 .LEHE40-.LEHB40
	.uleb128 .L359-.LFB2916
	.uleb128 0
	.uleb128 .LEHB41-.LFB2916
	.uleb128 .LEHE41-.LEHB41
	.uleb128 .L357-.LFB2916
	.uleb128 0
	.uleb128 .LEHB42-.LFB2916
	.uleb128 .LEHE42-.LEHB42
	.uleb128 0
	.uleb128 0
.LLSDACSE2916:
	.text
	.seh_endproc
	.section .rdata,"dr"
	.align 32
C.18.1:
	.byte	32
	.space 3
	.long	0
	.byte	39
	.space 3
	.long	11
	.byte	34
	.space 3
	.long	12
	.byte	45
	.space 3
	.long	9
	.byte	61
	.space 3
	.long	10
	.byte	49
	.space 3
	.long	1
	.byte	50
	.space 3
	.long	2
	.byte	51
	.space 3
	.long	3
	.byte	52
	.space 3
	.long	4
	.byte	53
	.space 3
	.long	5
	.byte	54
	.space 3
	.long	6
	.byte	55
	.space 3
	.long	7
	.byte	56
	.space 3
	.long	8
	.align 32
C.17.0:
	.long	0
	.byte	32
	.space 3
	.long	11
	.byte	39
	.space 3
	.long	12
	.byte	34
	.space 3
	.long	9
	.byte	45
	.space 3
	.long	10
	.byte	61
	.space 3
	.long	1
	.byte	49
	.space 3
	.long	2
	.byte	50
	.space 3
	.long	3
	.byte	51
	.space 3
	.long	4
	.byte	52
	.space 3
	.long	5
	.byte	53
	.space 3
	.long	6
	.byte	54
	.space 3
	.long	7
	.byte	55
	.space 3
	.long	8
	.byte	56
	.space 3
	.globl	_ZSt19piecewise_construct
	.section	.rdata$_ZSt19piecewise_construct,"dr"
	.linkonce same_size
_ZSt19piecewise_construct:
	.space 1
	.ident	"GCC: (Rev6, Built by MSYS2 project) 13.1.0"
	.def	_ZSt20__throw_length_errorPKc;	.scl	2;	.type	32;	.endef
	.def	_ZSt18_Rb_tree_decrementPSt18_Rb_tree_node_base;	.scl	2;	.type	32;	.endef
	.def	_ZSt18_Rb_tree_incrementPSt18_Rb_tree_node_base;	.scl	2;	.type	32;	.endef
	.def	_ZSt29_Rb_tree_insert_and_rebalancebPSt18_Rb_tree_node_baseS0_RS_;	.scl	2;	.type	32;	.endef
	.def	_ZdlPvy;	.scl	2;	.type	32;	.endef
	.def	_Znwy;	.scl	2;	.type	32;	.endef
	.def	_ZSt17__throw_bad_allocv;	.scl	2;	.type	32;	.endef
	.def	_ZSt28__throw_bad_array_new_lengthv;	.scl	2;	.type	32;	.endef
	.def	memmove;	.scl	2;	.type	32;	.endef
	.def	_Unwind_Resume;	.scl	2;	.type	32;	.endef
	.def	__cxa_begin_catch;	.scl	2;	.type	32;	.endef
	.def	__cxa_rethrow;	.scl	2;	.type	32;	.endef
	.def	__cxa_end_catch;	.scl	2;	.type	32;	.endef
	.def	_ZStlsISt11char_traitsIcEERSt13basic_ostreamIcT_ES5_PKc;	.scl	2;	.type	32;	.endef
	.def	_ZSt4endlIcSt11char_traitsIcEERSt13basic_ostreamIT_T0_ES6_;	.scl	2;	.type	32;	.endef
	.def	_ZN22HashiMemImplementationC1ESt6vectorIS0_I4TileSaIS1_EESaIS3_EE;	.scl	2;	.type	32;	.endef
	.section	.rdata$.refptr._ZSt4cout, "dr"
	.globl	.refptr._ZSt4cout
	.linkonce	discard
.refptr._ZSt4cout:
	.quad	_ZSt4cout
